---
triple:          'arm64-apple-darwin'
binary-path:     Player_tests.exe
relocations:
  - { offsetInCU: 0x52, offset: 0x52, size: 0x8, addend: 0x0, symName: __ZL10RANK_NAMES, symObjAddr: 0x2558, symBinAddr: 0x10001C4F0, symSize: 0x0 }
  - { offsetInCU: 0x81, offset: 0x81, size: 0x8, addend: 0x0, symName: __ZL10SUIT_NAMES, symObjAddr: 0x25C0, symBinAddr: 0x10001C558, symSize: 0x0 }
  - { offsetInCU: 0x307F, offset: 0x307F, size: 0x8, addend: 0x0, symName: __ZNSt3__124__put_character_sequenceB8ue170006IcNS_11char_traitsIcEEEERNS_13basic_ostreamIT_T0_EES7_PKS4_m, symObjAddr: 0x13F8, symBinAddr: 0x100003BD4, symSize: 0x1EC }
  - { offsetInCU: 0x4EEB, offset: 0x4EEB, size: 0x8, addend: 0x0, symName: __ZNSt3__1eqB8ue170006IcNS_11char_traitsIcEENS_9allocatorIcEEEEbRKNS_12basic_stringIT_T0_T1_EEPKS6_, symObjAddr: 0x90, symBinAddr: 0x10000286C, symSize: 0xAC }
  - { offsetInCU: 0x4F52, offset: 0x4F52, size: 0x8, addend: 0x0, symName: __ZNSt3__1lsB8ue170006INS_11char_traitsIcEEEERNS_13basic_ostreamIcT_EES6_PKc, symObjAddr: 0x17C, symBinAddr: 0x100002958, symSize: 0x48 }
  - { offsetInCU: 0x4F98, offset: 0x4F98, size: 0x8, addend: 0x0, symName: __ZNSt3__1rsB8ue170006IcNS_11char_traitsIcEENS_9allocatorIcEEEERNS_13basic_istreamIT_T0_EES9_RNS_12basic_stringIS6_S7_T1_EE, symObjAddr: 0x2AC, symBinAddr: 0x100002A88, symSize: 0x30C }
  - { offsetInCU: 0x5065, offset: 0x5065, size: 0x8, addend: 0x0, symName: __ZNSt3__118__constexpr_strlenB8ue170006EPKc, symObjAddr: 0x1308, symBinAddr: 0x100003AE4, symSize: 0x24 }
  - { offsetInCU: 0x5091, offset: 0x5091, size: 0x8, addend: 0x0, symName: __ZNSt3__116__pad_and_outputB8ue170006IcNS_11char_traitsIcEEEENS_19ostreambuf_iteratorIT_T0_EES6_PKS4_S8_S8_RNS_8ios_baseES4_, symObjAddr: 0x1600, symBinAddr: 0x100003DDC, symSize: 0x240 }
  - { offsetInCU: 0x5160, offset: 0x5160, size: 0x8, addend: 0x0, symName: __ZNSt3__112__to_addressB8ue170006IcEEPT_S2_, symObjAddr: 0x1B68, symBinAddr: 0x100004344, symSize: 0x14 }
  - { offsetInCU: 0x51C8, offset: 0x51C8, size: 0x8, addend: 0x0, symName: __ZNSt3__19use_facetB8ue170006INS_5ctypeIcEEEERKT_RKNS_6localeE, symObjAddr: 0x1DB0, symBinAddr: 0x10000458C, symSize: 0x2C }
  - { offsetInCU: 0x85FF, offset: 0x85FF, size: 0x8, addend: 0x0, symName: __Z14string_to_rankRKNSt3__112basic_stringIcNS_11char_traitsIcEENS_9allocatorIcEEEE, symObjAddr: 0x0, symBinAddr: 0x1000027DC, symSize: 0x90 }
  - { offsetInCU: 0x8647, offset: 0x8647, size: 0x8, addend: 0x0, symName: __ZlsRNSt3__113basic_ostreamIcNS_11char_traitsIcEEEE4Rank, symObjAddr: 0x13C, symBinAddr: 0x100002918, symSize: 0x40 }
  - { offsetInCU: 0x8681, offset: 0x8681, size: 0x8, addend: 0x0, symName: __ZrsRNSt3__113basic_istreamIcNS_11char_traitsIcEEEER4Rank, symObjAddr: 0x1C4, symBinAddr: 0x1000029A0, symSize: 0xBC }
  - { offsetInCU: 0x86C9, offset: 0x86C9, size: 0x8, addend: 0x0, symName: __ZNSt3__112basic_stringIcNS_11char_traitsIcEENS_9allocatorIcEEEC1B8ue170006Ev, symObjAddr: 0x280, symBinAddr: 0x100002A5C, symSize: 0x2C }
  - { offsetInCU: 0x86F1, offset: 0x86F1, size: 0x8, addend: 0x0, symName: __ZNKSt3__19basic_iosIcNS_11char_traitsIcEEEcvbB8ue170006Ev, symObjAddr: 0x5B8, symBinAddr: 0x100002D94, symSize: 0x2C }
  - { offsetInCU: 0x8715, offset: 0x8715, size: 0x8, addend: 0x0, symName: __Z14string_to_suitRKNSt3__112basic_stringIcNS_11char_traitsIcEENS_9allocatorIcEEEE, symObjAddr: 0x5E4, symBinAddr: 0x100002DC0, symSize: 0x90 }
  - { offsetInCU: 0x875D, offset: 0x875D, size: 0x8, addend: 0x0, symName: __ZlsRNSt3__113basic_ostreamIcNS_11char_traitsIcEEEE4Suit, symObjAddr: 0x674, symBinAddr: 0x100002E50, symSize: 0x40 }
  - { offsetInCU: 0x8797, offset: 0x8797, size: 0x8, addend: 0x0, symName: __ZrsRNSt3__113basic_istreamIcNS_11char_traitsIcEEEER4Suit, symObjAddr: 0x6B4, symBinAddr: 0x100002E90, symSize: 0xBC }
  - { offsetInCU: 0x88E4, offset: 0x88E4, size: 0x8, addend: 0x0, symName: __ZN4CardC2Ev, symObjAddr: 0x770, symBinAddr: 0x100002F4C, symSize: 0x1C }
  - { offsetInCU: 0x890F, offset: 0x890F, size: 0x8, addend: 0x0, symName: __ZN4CardC1Ev, symObjAddr: 0x78C, symBinAddr: 0x100002F68, symSize: 0x2C }
  - { offsetInCU: 0x8938, offset: 0x8938, size: 0x8, addend: 0x0, symName: __ZN4CardC2E4Rank4Suit, symObjAddr: 0x7B8, symBinAddr: 0x100002F94, symSize: 0x2C }
  - { offsetInCU: 0x897F, offset: 0x897F, size: 0x8, addend: 0x0, symName: __ZN4CardC1E4Rank4Suit, symObjAddr: 0x7E4, symBinAddr: 0x100002FC0, symSize: 0x3C }
  - { offsetInCU: 0x89C5, offset: 0x89C5, size: 0x8, addend: 0x0, symName: __ZNK4Card8get_rankEv, symObjAddr: 0x820, symBinAddr: 0x100002FFC, symSize: 0x18 }
  - { offsetInCU: 0x89EC, offset: 0x89EC, size: 0x8, addend: 0x0, symName: __ZNK4Card8get_suitEv, symObjAddr: 0x838, symBinAddr: 0x100003014, symSize: 0x18 }
  - { offsetInCU: 0x8A13, offset: 0x8A13, size: 0x8, addend: 0x0, symName: __ZNK4Card8get_suitE4Suit, symObjAddr: 0x850, symBinAddr: 0x10000302C, symSize: 0x58 }
  - { offsetInCU: 0x8A48, offset: 0x8A48, size: 0x8, addend: 0x0, symName: __ZNK4Card13is_left_bowerE4Suit, symObjAddr: 0x8A8, symBinAddr: 0x100003084, symSize: 0x8C }
  - { offsetInCU: 0x8A7D, offset: 0x8A7D, size: 0x8, addend: 0x0, symName: __ZNK4Card14is_face_or_aceEv, symObjAddr: 0x934, symBinAddr: 0x100003110, symSize: 0x58 }
  - { offsetInCU: 0x8AA4, offset: 0x8AA4, size: 0x8, addend: 0x0, symName: __ZNK4Card14is_right_bowerE4Suit, symObjAddr: 0x98C, symBinAddr: 0x100003168, symSize: 0x7C }
  - { offsetInCU: 0x8AD8, offset: 0x8AD8, size: 0x8, addend: 0x0, symName: __Z9Suit_next4Suit, symObjAddr: 0xA08, symBinAddr: 0x1000031E4, symSize: 0x7C }
  - { offsetInCU: 0x8B05, offset: 0x8B05, size: 0x8, addend: 0x0, symName: __ZNK4Card8is_trumpE4Suit, symObjAddr: 0xA84, symBinAddr: 0x100003260, symSize: 0x84 }
  - { offsetInCU: 0x8B39, offset: 0x8B39, size: 0x8, addend: 0x0, symName: __ZlsRNSt3__113basic_ostreamIcNS_11char_traitsIcEEEERK4Card, symObjAddr: 0xB08, symBinAddr: 0x1000032E4, symSize: 0x7C }
  - { offsetInCU: 0x8B73, offset: 0x8B73, size: 0x8, addend: 0x0, symName: __ZrsRNSt3__113basic_istreamIcNS_11char_traitsIcEEEER4Card, symObjAddr: 0xB84, symBinAddr: 0x100003360, symSize: 0x14C }
  - { offsetInCU: 0x8BD8, offset: 0x8BD8, size: 0x8, addend: 0x0, symName: __ZltRK4CardS1_, symObjAddr: 0xCD0, symBinAddr: 0x1000034AC, symSize: 0xF0 }
  - { offsetInCU: 0x8C12, offset: 0x8C12, size: 0x8, addend: 0x0, symName: __ZleRK4CardS1_, symObjAddr: 0xDC0, symBinAddr: 0x10000359C, symSize: 0x64 }
  - { offsetInCU: 0x8C4C, offset: 0x8C4C, size: 0x8, addend: 0x0, symName: __ZgtRK4CardS1_, symObjAddr: 0xE24, symBinAddr: 0x100003600, symSize: 0x64 }
  - { offsetInCU: 0x8C86, offset: 0x8C86, size: 0x8, addend: 0x0, symName: __ZgeRK4CardS1_, symObjAddr: 0xE88, symBinAddr: 0x100003664, symSize: 0x64 }
  - { offsetInCU: 0x8CC0, offset: 0x8CC0, size: 0x8, addend: 0x0, symName: __ZeqRK4CardS1_, symObjAddr: 0xEEC, symBinAddr: 0x1000036C8, symSize: 0xA8 }
  - { offsetInCU: 0x8CFA, offset: 0x8CFA, size: 0x8, addend: 0x0, symName: __ZneRK4CardS1_, symObjAddr: 0xF94, symBinAddr: 0x100003770, symSize: 0x64 }
  - { offsetInCU: 0x8D34, offset: 0x8D34, size: 0x8, addend: 0x0, symName: __Z9Card_lessRK4CardS1_4Suit, symObjAddr: 0xFF8, symBinAddr: 0x1000037D4, symSize: 0xC0 }
  - { offsetInCU: 0x8D7C, offset: 0x8D7C, size: 0x8, addend: 0x0, symName: __Z9Card_lessRK4CardS1_S1_4Suit, symObjAddr: 0x10B8, symBinAddr: 0x100003894, symSize: 0x1BC }
  - { offsetInCU: 0x8DD3, offset: 0x8DD3, size: 0x8, addend: 0x0, symName: __ZNSt3__111char_traitsIcE6lengthB8ue170006EPKc, symObjAddr: 0x1274, symBinAddr: 0x100003A50, symSize: 0x34 }
  - { offsetInCU: 0x8DF5, offset: 0x8DF5, size: 0x8, addend: 0x0, symName: __ZNKSt3__112basic_stringIcNS_11char_traitsIcEENS_9allocatorIcEEE4sizeB8ue170006Ev, symObjAddr: 0x12A8, symBinAddr: 0x100003A84, symSize: 0x54 }
  - { offsetInCU: 0x8E19, offset: 0x8E19, size: 0x8, addend: 0x0, symName: __ZNKSt3__112basic_stringIcNS_11char_traitsIcEENS_9allocatorIcEEE9__is_longB8ue170006Ev, symObjAddr: 0x132C, symBinAddr: 0x100003B08, symSize: 0x38 }
  - { offsetInCU: 0x8E3D, offset: 0x8E3D, size: 0x8, addend: 0x0, symName: __ZNKSt3__112basic_stringIcNS_11char_traitsIcEENS_9allocatorIcEEE15__get_long_sizeB8ue170006Ev, symObjAddr: 0x1364, symBinAddr: 0x100003B40, symSize: 0x28 }
  - { offsetInCU: 0x8E61, offset: 0x8E61, size: 0x8, addend: 0x0, symName: __ZNKSt3__112basic_stringIcNS_11char_traitsIcEENS_9allocatorIcEEE16__get_short_sizeB8ue170006Ev, symObjAddr: 0x138C, symBinAddr: 0x100003B68, symSize: 0x34 }
  - { offsetInCU: 0x8E85, offset: 0x8E85, size: 0x8, addend: 0x0, symName: __ZNKSt3__117__compressed_pairINS_12basic_stringIcNS_11char_traitsIcEENS_9allocatorIcEEE5__repES5_E5firstB8ue170006Ev, symObjAddr: 0x13C0, symBinAddr: 0x100003B9C, symSize: 0x24 }
  - { offsetInCU: 0x8EAA, offset: 0x8EAA, size: 0x8, addend: 0x0, symName: __ZNKSt3__122__compressed_pair_elemINS_12basic_stringIcNS_11char_traitsIcEENS_9allocatorIcEEE5__repELi0ELb0EE5__getB8ue170006Ev, symObjAddr: 0x13E4, symBinAddr: 0x100003BC0, symSize: 0x14 }
  - { offsetInCU: 0x8EED, offset: 0x8EED, size: 0x8, addend: 0x0, symName: __ZNKSt3__113basic_ostreamIcNS_11char_traitsIcEEE6sentrycvbB8ue170006Ev, symObjAddr: 0x15E4, symBinAddr: 0x100003DC0, symSize: 0x1C }
  - { offsetInCU: 0x8F11, offset: 0x8F11, size: 0x8, addend: 0x0, symName: __ZNSt3__119ostreambuf_iteratorIcNS_11char_traitsIcEEEC1B8ue170006ERNS_13basic_ostreamIcS2_EE, symObjAddr: 0x1840, symBinAddr: 0x10000401C, symSize: 0x34 }
  - { offsetInCU: 0x8F48, offset: 0x8F48, size: 0x8, addend: 0x0, symName: __ZNKSt3__18ios_base5flagsB8ue170006Ev, symObjAddr: 0x1874, symBinAddr: 0x100004050, symSize: 0x18 }
  - { offsetInCU: 0x8F6F, offset: 0x8F6F, size: 0x8, addend: 0x0, symName: __ZNKSt3__19basic_iosIcNS_11char_traitsIcEEE4fillB8ue170006Ev, symObjAddr: 0x188C, symBinAddr: 0x100004068, symSize: 0x64 }
  - { offsetInCU: 0x8F96, offset: 0x8F96, size: 0x8, addend: 0x0, symName: __ZNKSt3__119ostreambuf_iteratorIcNS_11char_traitsIcEEE6failedB8ue170006Ev, symObjAddr: 0x18F0, symBinAddr: 0x1000040CC, symSize: 0x24 }
  - { offsetInCU: 0x8FBA, offset: 0x8FBA, size: 0x8, addend: 0x0, symName: __ZNSt3__19basic_iosIcNS_11char_traitsIcEEE8setstateB8ue170006Ej, symObjAddr: 0x1914, symBinAddr: 0x1000040F0, symSize: 0x2C }
  - { offsetInCU: 0x8FEE, offset: 0x8FEE, size: 0x8, addend: 0x0, symName: __ZNKSt3__18ios_base5widthB8ue170006Ev, symObjAddr: 0x1940, symBinAddr: 0x10000411C, symSize: 0x18 }
  - { offsetInCU: 0x9014, offset: 0x9014, size: 0x8, addend: 0x0, symName: __ZNSt3__115basic_streambufIcNS_11char_traitsIcEEE5sputnB8ue170006EPKcl, symObjAddr: 0x1958, symBinAddr: 0x100004134, symSize: 0x3C }
  - { offsetInCU: 0x9054, offset: 0x9054, size: 0x8, addend: 0x0, symName: __ZNSt3__112basic_stringIcNS_11char_traitsIcEENS_9allocatorIcEEEC1B8ue170006Emc, symObjAddr: 0x1994, symBinAddr: 0x100004170, symSize: 0x3C }
  - { offsetInCU: 0x909A, offset: 0x909A, size: 0x8, addend: 0x0, symName: __ZNSt3__112basic_stringIcNS_11char_traitsIcEENS_9allocatorIcEEE4dataB8ue170006Ev, symObjAddr: 0x19D0, symBinAddr: 0x1000041AC, symSize: 0x28 }
  - { offsetInCU: 0x90BF, offset: 0x90BF, size: 0x8, addend: 0x0, symName: __ZNSt3__18ios_base5widthB8ue170006El, symObjAddr: 0x19F8, symBinAddr: 0x1000041D4, symSize: 0x2C }
  - { offsetInCU: 0x9103, offset: 0x9103, size: 0x8, addend: 0x0, symName: __ZNSt3__112basic_stringIcNS_11char_traitsIcEENS_9allocatorIcEEEC2B8ue170006Emc, symObjAddr: 0x1A24, symBinAddr: 0x100004200, symSize: 0x4C }
  - { offsetInCU: 0x914E, offset: 0x914E, size: 0x8, addend: 0x0, symName: __ZNSt3__117__compressed_pairINS_12basic_stringIcNS_11char_traitsIcEENS_9allocatorIcEEE5__repES5_EC1B8ue170006INS_18__default_init_tagESA_EEOT_OT0_, symObjAddr: 0x1A70, symBinAddr: 0x10000424C, symSize: 0x3C }
  - { offsetInCU: 0x91A4, offset: 0x91A4, size: 0x8, addend: 0x0, symName: __ZNSt3__117__compressed_pairINS_12basic_stringIcNS_11char_traitsIcEENS_9allocatorIcEEE5__repES5_EC2B8ue170006INS_18__default_init_tagESA_EEOT_OT0_, symObjAddr: 0x1AAC, symBinAddr: 0x100004288, symSize: 0x3C }
  - { offsetInCU: 0x91FB, offset: 0x91FB, size: 0x8, addend: 0x0, symName: __ZNSt3__122__compressed_pair_elemINS_12basic_stringIcNS_11char_traitsIcEENS_9allocatorIcEEE5__repELi0ELb0EEC2B8ue170006ENS_18__default_init_tagE, symObjAddr: 0x1AE8, symBinAddr: 0x1000042C4, symSize: 0x14 }
  - { offsetInCU: 0x922E, offset: 0x922E, size: 0x8, addend: 0x0, symName: __ZNSt3__122__compressed_pair_elemINS_9allocatorIcEELi1ELb1EEC2B8ue170006ENS_18__default_init_tagE, symObjAddr: 0x1AFC, symBinAddr: 0x1000042D8, symSize: 0x2C }
  - { offsetInCU: 0x9261, offset: 0x9261, size: 0x8, addend: 0x0, symName: __ZNSt3__19allocatorIcEC2B8ue170006Ev, symObjAddr: 0x1B28, symBinAddr: 0x100004304, symSize: 0x2C }
  - { offsetInCU: 0x928A, offset: 0x928A, size: 0x8, addend: 0x0, symName: __ZNSt3__116__non_trivial_ifILb1ENS_9allocatorIcEEEC2B8ue170006Ev, symObjAddr: 0x1B54, symBinAddr: 0x100004330, symSize: 0x14 }
  - { offsetInCU: 0x92B2, offset: 0x92B2, size: 0x8, addend: 0x0, symName: __ZNSt3__112basic_stringIcNS_11char_traitsIcEENS_9allocatorIcEEE13__get_pointerB8ue170006Ev, symObjAddr: 0x1B7C, symBinAddr: 0x100004358, symSize: 0x54 }
  - { offsetInCU: 0x92D6, offset: 0x92D6, size: 0x8, addend: 0x0, symName: __ZNSt3__112basic_stringIcNS_11char_traitsIcEENS_9allocatorIcEEE18__get_long_pointerB8ue170006Ev, symObjAddr: 0x1BD0, symBinAddr: 0x1000043AC, symSize: 0x28 }
  - { offsetInCU: 0x92FA, offset: 0x92FA, size: 0x8, addend: 0x0, symName: __ZNSt3__112basic_stringIcNS_11char_traitsIcEENS_9allocatorIcEEE19__get_short_pointerB8ue170006Ev, symObjAddr: 0x1BF8, symBinAddr: 0x1000043D4, symSize: 0x28 }
  - { offsetInCU: 0x931E, offset: 0x931E, size: 0x8, addend: 0x0, symName: __ZNSt3__117__compressed_pairINS_12basic_stringIcNS_11char_traitsIcEENS_9allocatorIcEEE5__repES5_E5firstB8ue170006Ev, symObjAddr: 0x1C20, symBinAddr: 0x1000043FC, symSize: 0x24 }
  - { offsetInCU: 0x9343, offset: 0x9343, size: 0x8, addend: 0x0, symName: __ZNSt3__122__compressed_pair_elemINS_12basic_stringIcNS_11char_traitsIcEENS_9allocatorIcEEE5__repELi0ELb0EE5__getB8ue170006Ev, symObjAddr: 0x1C44, symBinAddr: 0x100004420, symSize: 0x14 }
  - { offsetInCU: 0x9368, offset: 0x9368, size: 0x8, addend: 0x0, symName: __ZNSt3__114pointer_traitsIPcE10pointer_toB8ue170006ERc, symObjAddr: 0x1C58, symBinAddr: 0x100004434, symSize: 0x14 }
  - { offsetInCU: 0x938A, offset: 0x938A, size: 0x8, addend: 0x0, symName: __ZNSt3__119ostreambuf_iteratorIcNS_11char_traitsIcEEEC2B8ue170006ERNS_13basic_ostreamIcS2_EE, symObjAddr: 0x1C6C, symBinAddr: 0x100004448, symSize: 0x54 }
  - { offsetInCU: 0x93C1, offset: 0x93C1, size: 0x8, addend: 0x0, symName: __ZNKSt3__19basic_iosIcNS_11char_traitsIcEEE5rdbufB8ue170006Ev, symObjAddr: 0x1CC0, symBinAddr: 0x10000449C, symSize: 0x24 }
  - { offsetInCU: 0x93E8, offset: 0x93E8, size: 0x8, addend: 0x0, symName: __ZNKSt3__18ios_base5rdbufB8ue170006Ev, symObjAddr: 0x1CE4, symBinAddr: 0x1000044C0, symSize: 0x18 }
  - { offsetInCU: 0x940D, offset: 0x940D, size: 0x8, addend: 0x0, symName: __ZNSt3__111char_traitsIcE11eq_int_typeB8ue170006Eii, symObjAddr: 0x1CFC, symBinAddr: 0x1000044D8, symSize: 0x28 }
  - { offsetInCU: 0x9440, offset: 0x9440, size: 0x8, addend: 0x0, symName: __ZNSt3__111char_traitsIcE3eofB8ue170006Ev, symObjAddr: 0x1D24, symBinAddr: 0x100004500, symSize: 0x8 }
  - { offsetInCU: 0x9454, offset: 0x9454, size: 0x8, addend: 0x0, symName: __ZNKSt3__19basic_iosIcNS_11char_traitsIcEEE5widenB8ue170006Ec, symObjAddr: 0x1D2C, symBinAddr: 0x100004508, symSize: 0x84 }
  - { offsetInCU: 0x94B6, offset: 0x94B6, size: 0x8, addend: 0x0, symName: __ZNKSt3__15ctypeIcE5widenB8ue170006Ec, symObjAddr: 0x1DDC, symBinAddr: 0x1000045B8, symSize: 0x38 }
  - { offsetInCU: 0x94EA, offset: 0x94EA, size: 0x8, addend: 0x0, symName: __ZNSt3__18ios_base8setstateB8ue170006Ej, symObjAddr: 0x1E14, symBinAddr: 0x1000045F0, symSize: 0x34 }
  - { offsetInCU: 0x951F, offset: 0x951F, size: 0x8, addend: 0x0, symName: __ZNSt3__112basic_stringIcNS_11char_traitsIcEENS_9allocatorIcEEEC2B8ue170006Ev, symObjAddr: 0x1E48, symBinAddr: 0x100004624, symSize: 0x48 }
  - { offsetInCU: 0x9547, offset: 0x9547, size: 0x8, addend: 0x0, symName: __ZNSt3__112basic_stringIcNS_11char_traitsIcEENS_9allocatorIcEEE14__default_initB8ue170006Ev, symObjAddr: 0x1E90, symBinAddr: 0x10000466C, symSize: 0x40 }
  - { offsetInCU: 0x95FE, offset: 0x95FE, size: 0x8, addend: 0x0, symName: __ZNKSt3__113basic_istreamIcNS_11char_traitsIcEEE6sentrycvbB8ue170006Ev, symObjAddr: 0x1ED0, symBinAddr: 0x1000046AC, symSize: 0x1C }
  - { offsetInCU: 0x9623, offset: 0x9623, size: 0x8, addend: 0x0, symName: __ZNSt3__112basic_stringIcNS_11char_traitsIcEENS_9allocatorIcEEE5clearB8ue170006Ev, symObjAddr: 0x1EEC, symBinAddr: 0x1000046C8, symSize: 0x78 }
  - { offsetInCU: 0x9649, offset: 0x9649, size: 0x8, addend: 0x0, symName: __ZNKSt3__112basic_stringIcNS_11char_traitsIcEENS_9allocatorIcEEE8max_sizeB8ue170006Ev, symObjAddr: 0x1F64, symBinAddr: 0x100004740, symSize: 0xAC }
  - { offsetInCU: 0x969A, offset: 0x969A, size: 0x8, addend: 0x0, symName: __ZNSt3__114numeric_limitsIlE3maxB8ue170006Ev, symObjAddr: 0x2010, symBinAddr: 0x1000047EC, symSize: 0x14 }
  - { offsetInCU: 0x96AD, offset: 0x96AD, size: 0x8, addend: 0x0, symName: __ZNSt3__115basic_streambufIcNS_11char_traitsIcEEE5sgetcB8ue170006Ev, symObjAddr: 0x2024, symBinAddr: 0x100004800, symSize: 0x70 }
  - { offsetInCU: 0x96D2, offset: 0x96D2, size: 0x8, addend: 0x0, symName: __ZNSt3__111char_traitsIcE12to_char_typeB8ue170006Ei, symObjAddr: 0x2094, symBinAddr: 0x100004870, symSize: 0x18 }
  - { offsetInCU: 0x96F4, offset: 0x96F4, size: 0x8, addend: 0x0, symName: __ZNKSt3__15ctypeIcE2isB8ue170006Ejc, symObjAddr: 0x20AC, symBinAddr: 0x100004888, symSize: 0x7C }
  - { offsetInCU: 0x9736, offset: 0x9736, size: 0x8, addend: 0x0, symName: __ZNSt3__115basic_streambufIcNS_11char_traitsIcEEE6sbumpcB8ue170006Ev, symObjAddr: 0x2128, symBinAddr: 0x100004904, symSize: 0x78 }
  - { offsetInCU: 0x975B, offset: 0x975B, size: 0x8, addend: 0x0, symName: __ZNSt3__18ios_base18__setstate_nothrowB8ue170006Ej, symObjAddr: 0x21A0, symBinAddr: 0x10000497C, symSize: 0x64 }
  - { offsetInCU: 0x978E, offset: 0x978E, size: 0x8, addend: 0x0, symName: __ZNKSt3__19basic_iosIcNS_11char_traitsIcEEE10exceptionsB8ue170006Ev, symObjAddr: 0x2204, symBinAddr: 0x1000049E0, symSize: 0x24 }
  - { offsetInCU: 0x97B3, offset: 0x97B3, size: 0x8, addend: 0x0, symName: __ZNSt3__111char_traitsIcE6assignB8ue170006ERcRKc, symObjAddr: 0x2228, symBinAddr: 0x100004A04, symSize: 0x24 }
  - { offsetInCU: 0x97E3, offset: 0x97E3, size: 0x8, addend: 0x0, symName: __ZNSt3__112basic_stringIcNS_11char_traitsIcEENS_9allocatorIcEEE15__set_long_sizeB8ue170006Em, symObjAddr: 0x224C, symBinAddr: 0x100004A28, symSize: 0x38 }
  - { offsetInCU: 0x9816, offset: 0x9816, size: 0x8, addend: 0x0, symName: __ZNSt3__112basic_stringIcNS_11char_traitsIcEENS_9allocatorIcEEE16__set_short_sizeB8ue170006Em, symObjAddr: 0x2284, symBinAddr: 0x100004A60, symSize: 0x78 }
  - { offsetInCU: 0x9854, offset: 0x9854, size: 0x8, addend: 0x0, symName: __ZNSt3__116allocator_traitsINS_9allocatorIcEEE8max_sizeB8ue170006IS2_vEEmRKS2_, symObjAddr: 0x22FC, symBinAddr: 0x100004AD8, symSize: 0x24 }
  - { offsetInCU: 0x9881, offset: 0x9881, size: 0x8, addend: 0x0, symName: __ZNKSt3__112basic_stringIcNS_11char_traitsIcEENS_9allocatorIcEEE7__allocB8ue170006Ev, symObjAddr: 0x2320, symBinAddr: 0x100004AFC, symSize: 0x24 }
  - { offsetInCU: 0x98A6, offset: 0x98A6, size: 0x8, addend: 0x0, symName: __ZNSt3__114numeric_limitsImE3maxB8ue170006Ev, symObjAddr: 0x2344, symBinAddr: 0x100004B20, symSize: 0x14 }
  - { offsetInCU: 0x98BA, offset: 0x98BA, size: 0x8, addend: 0x0, symName: __ZNKSt3__19allocatorIcE8max_sizeB8ue170006Ev, symObjAddr: 0x2358, symBinAddr: 0x100004B34, symSize: 0x14 }
  - { offsetInCU: 0x98DE, offset: 0x98DE, size: 0x8, addend: 0x0, symName: __ZNKSt3__117__compressed_pairINS_12basic_stringIcNS_11char_traitsIcEENS_9allocatorIcEEE5__repES5_E6secondB8ue170006Ev, symObjAddr: 0x236C, symBinAddr: 0x100004B48, symSize: 0x24 }
  - { offsetInCU: 0x9903, offset: 0x9903, size: 0x8, addend: 0x0, symName: __ZNKSt3__122__compressed_pair_elemINS_9allocatorIcEELi1ELb1EE5__getB8ue170006Ev, symObjAddr: 0x2390, symBinAddr: 0x100004B6C, symSize: 0x14 }
  - { offsetInCU: 0x9928, offset: 0x9928, size: 0x8, addend: 0x0, symName: __ZNSt3__123__libcpp_numeric_limitsImLb1EE3maxB8ue170006Ev, symObjAddr: 0x23A4, symBinAddr: 0x100004B80, symSize: 0x8 }
  - { offsetInCU: 0x993C, offset: 0x993C, size: 0x8, addend: 0x0, symName: __ZNSt3__123__libcpp_numeric_limitsIlLb1EE3maxB8ue170006Ev, symObjAddr: 0x23AC, symBinAddr: 0x100004B88, symSize: 0x8 }
  - { offsetInCU: 0x9950, offset: 0x9950, size: 0x8, addend: 0x0, symName: __ZNSt3__111char_traitsIcE11to_int_typeB8ue170006Ec, symObjAddr: 0x23B4, symBinAddr: 0x100004B90, symSize: 0x14 }
  - { offsetInCU: 0x9973, offset: 0x9973, size: 0x8, addend: 0x0, symName: __Z7isasciii, symObjAddr: 0x23C8, symBinAddr: 0x100004BA4, symSize: 0x24 }
  - { offsetInCU: 0x99A0, offset: 0x99A0, size: 0x8, addend: 0x0, symName: __ZNKSt3__18ios_base10exceptionsB8ue170006Ev, symObjAddr: 0x23EC, symBinAddr: 0x100004BC8, symSize: 0x18 }
  - { offsetInCU: 0x99C6, offset: 0x99C6, size: 0x8, addend: 0x0, symName: __ZNKSt3__19basic_iosIcNS_11char_traitsIcEEE4failB8ue170006Ev, symObjAddr: 0x2404, symBinAddr: 0x100004BE0, symSize: 0x28 }
  - { offsetInCU: 0x99EB, offset: 0x99EB, size: 0x8, addend: 0x0, symName: __ZNKSt3__18ios_base4failB8ue170006Ev, symObjAddr: 0x242C, symBinAddr: 0x100004C08, symSize: 0x28 }
  - { offsetInCU: 0x4FC9, offset: 0xEA61, size: 0x8, addend: 0x0, symName: __ZNSt3__111__introsortINS_17_ClassicAlgPolicyERNS_6__lessIvvEEP4CardLb0EEEvT1_S7_T0_NS_15iterator_traitsIS7_E15difference_typeEb, symObjAddr: 0x5490, symBinAddr: 0x100008BB4, symSize: 0x434 }
  - { offsetInCU: 0x50F5, offset: 0xEB8D, size: 0x8, addend: 0x0, symName: __ZNSt3__126__insertion_sort_unguardedB8ue170006INS_17_ClassicAlgPolicyERNS_6__lessIvvEEP4CardEEvT1_S7_T0_, symObjAddr: 0x5B7C, symBinAddr: 0x1000092A0, symSize: 0x120 }
  - { offsetInCU: 0x51E6, offset: 0xEC7E, size: 0x8, addend: 0x0, symName: __ZNSt3__111__sift_downB8ue170006INS_17_ClassicAlgPolicyERNS_6__lessIvvEEP4CardEEvT1_OT0_NS_15iterator_traitsIS7_E15difference_typeES7_, symObjAddr: 0x6D38, symBinAddr: 0x10000A45C, symSize: 0x20C }
  - { offsetInCU: 0x5294, offset: 0xED2C, size: 0x8, addend: 0x0, symName: __ZNSt3__117__floyd_sift_downB8ue170006INS_17_ClassicAlgPolicyERNS_6__lessIvvEEP4CardEET1_S7_OT0_NS_15iterator_traitsIS7_E15difference_typeE, symObjAddr: 0x70E0, symBinAddr: 0x10000A804, symSize: 0x100 }
  - { offsetInCU: 0x532C, offset: 0xEDC4, size: 0x8, addend: 0x0, symName: __ZNSt3__131__partition_with_equals_on_leftB8ue170006INS_17_ClassicAlgPolicyEP4CardRNS_6__lessIvvEEEET0_S7_S7_T1_, symObjAddr: 0x5EA8, symBinAddr: 0x1000095CC, symSize: 0x20C }
  - { offsetInCU: 0x53E7, offset: 0xEE7F, size: 0x8, addend: 0x0, symName: __ZNSt3__118__bitset_partitionB8ue170006INS_17_ClassicAlgPolicyEP4CardRNS_6__lessIvvEEEENS_4pairIT0_bEES8_S8_T1_, symObjAddr: 0x60B4, symBinAddr: 0x1000097D8, symSize: 0x324 }
  - { offsetInCU: 0x54E0, offset: 0xEF78, size: 0x8, addend: 0x0, symName: __ZNSt3__124__swap_bitmap_pos_withinB8ue170006INS_17_ClassicAlgPolicyEP4CardEEvRT0_S5_RyS6_, symObjAddr: 0x782C, symBinAddr: 0x10000AF50, symSize: 0x1E0 }
  - { offsetInCU: 0x55AE, offset: 0xF046, size: 0x8, addend: 0x0, symName: __ZNSt3__132__partition_with_equals_on_rightB8ue170006INS_17_ClassicAlgPolicyEP4CardRNS_6__lessIvvEEEENS_4pairIT0_bEES8_S8_T1_, symObjAddr: 0x63D8, symBinAddr: 0x100009AFC, symSize: 0x21C }
  - { offsetInCU: 0x5678, offset: 0xF110, size: 0x8, addend: 0x0, symName: __ZNSt3__127__insertion_sort_incompleteB8ue170006INS_17_ClassicAlgPolicyERNS_6__lessIvvEEP4CardEEbT1_S7_T0_, symObjAddr: 0x65F4, symBinAddr: 0x100009D18, symSize: 0x304 }
  - { offsetInCU: 0x627F, offset: 0xFD17, size: 0x8, addend: 0x0, symName: __ZNSt3__1lsB8ue170006IcNS_11char_traitsIcEENS_9allocatorIcEEEERNS_13basic_ostreamIT_T0_EES9_RKNS_12basic_stringIS6_S7_T1_EE, symObjAddr: 0x258, symBinAddr: 0x100004DDC, symSize: 0x4C }
  - { offsetInCU: 0x62D7, offset: 0xFD6F, size: 0x8, addend: 0x0, symName: __ZNSt3__112__to_addressB8ue170006I4CardEEPT_S3_, symObjAddr: 0x1488, symBinAddr: 0x100005E1C, symSize: 0x14 }
  - { offsetInCU: 0x630C, offset: 0xFDA4, size: 0x8, addend: 0x0, symName: __ZNSt3__119__libcpp_deallocateB8ue170006EPvmm, symObjAddr: 0x1560, symBinAddr: 0x100005EF4, symSize: 0x60 }
  - { offsetInCU: 0x6372, offset: 0xFE0A, size: 0x8, addend: 0x0, symName: __ZNSt3__124__is_overaligned_for_newB8ue170006Em, symObjAddr: 0x15C0, symBinAddr: 0x100005F54, symSize: 0x20 }
  - { offsetInCU: 0x63A1, offset: 0xFE39, size: 0x8, addend: 0x0, symName: __ZNSt3__127__do_deallocate_handle_sizeB8ue170006IJSt11align_val_tEEEvPvmDpT_, symObjAddr: 0x15E0, symBinAddr: 0x100005F74, symSize: 0x30 }
  - { offsetInCU: 0x63F7, offset: 0xFE8F, size: 0x8, addend: 0x0, symName: __ZNSt3__127__do_deallocate_handle_sizeB8ue170006IJEEEvPvmDpT_, symObjAddr: 0x1610, symBinAddr: 0x100005FA4, symSize: 0x28 }
  - { offsetInCU: 0x6437, offset: 0xFECF, size: 0x8, addend: 0x0, symName: __ZNSt3__124__libcpp_operator_deleteB8ue170006IJPvSt11align_val_tEEEvDpT_, symObjAddr: 0x1638, symBinAddr: 0x100005FCC, symSize: 0x2C }
  - { offsetInCU: 0x6484, offset: 0xFF1C, size: 0x8, addend: 0x0, symName: __ZNSt3__124__libcpp_operator_deleteB8ue170006IJPvEEEvDpT_, symObjAddr: 0x1664, symBinAddr: 0x100005FF8, symSize: 0x24 }
  - { offsetInCU: 0x64BC, offset: 0xFF54, size: 0x8, addend: 0x0, symName: __ZNSt3__13maxB8ue170006ImEERKT_S3_S3_, symObjAddr: 0x1D2C, symBinAddr: 0x1000066C0, symSize: 0x2C }
  - { offsetInCU: 0x64FF, offset: 0xFF97, size: 0x8, addend: 0x0, symName: __ZNSt3__13minB8ue170006ImEERKT_S3_S3_, symObjAddr: 0x1D58, symBinAddr: 0x1000066EC, symSize: 0x2C }
  - { offsetInCU: 0x6542, offset: 0xFFDA, size: 0x8, addend: 0x0, symName: __ZNSt3__13minB8ue170006ImNS_6__lessIvvEEEERKT_S5_S5_T0_, symObjAddr: 0x1DE4, symBinAddr: 0x100006764, symSize: 0x54 }
  - { offsetInCU: 0x6614, offset: 0x100AC, size: 0x8, addend: 0x0, symName: __ZNSt3__120__throw_length_errorB8ue170006EPKc, symObjAddr: 0x1EC0, symBinAddr: 0x100006838, symSize: 0x64 }
  - { offsetInCU: 0x663F, offset: 0x100D7, size: 0x8, addend: 0x0, symName: __ZNSt3__13maxB8ue170006ImNS_6__lessIvvEEEERKT_S5_S5_T0_, symObjAddr: 0x1FA4, symBinAddr: 0x10000691C, symSize: 0x54 }
  - { offsetInCU: 0x6699, offset: 0x10131, size: 0x8, addend: 0x0, symName: __ZNSt3__119__allocate_at_leastB8ue170006INS_9allocatorI4CardEEEENS_19__allocation_resultINS_16allocator_traitsIT_E7pointerEEERS6_m, symObjAddr: 0x2108, symBinAddr: 0x100006A80, symSize: 0x40 }
  - { offsetInCU: 0x66DC, offset: 0x10174, size: 0x8, addend: 0x0, symName: __ZNSt3__117__libcpp_allocateB8ue170006Emm, symObjAddr: 0x228C, symBinAddr: 0x100006C04, symSize: 0x60 }
  - { offsetInCU: 0x6736, offset: 0x101CE, size: 0x8, addend: 0x0, symName: __ZNSt3__121__libcpp_operator_newB8ue170006IJmSt11align_val_tEEEPvDpT_, symObjAddr: 0x22EC, symBinAddr: 0x100006C64, symSize: 0x2C }
  - { offsetInCU: 0x6786, offset: 0x1021E, size: 0x8, addend: 0x0, symName: __ZNSt3__121__libcpp_operator_newB8ue170006IJmEEEPvDpT_, symObjAddr: 0x2318, symBinAddr: 0x100006C90, symSize: 0x24 }
  - { offsetInCU: 0x67C1, offset: 0x10259, size: 0x8, addend: 0x0, symName: __ZNSt3__142__uninitialized_allocator_move_if_noexceptB8ue170006INS_9allocatorI4CardEENS_16reverse_iteratorIPS2_EES6_S2_vEET1_RT_T0_SA_S7_, symObjAddr: 0x23A0, symBinAddr: 0x100006D18, symSize: 0x78 }
  - { offsetInCU: 0x683F, offset: 0x102D7, size: 0x8, addend: 0x0, symName: __ZNSt3__14swapB8ue170006IP4CardEENS_9enable_ifIXaasr21is_move_constructibleIT_EE5valuesr18is_move_assignableIS4_EE5valueEvE4typeERS4_S7_, symObjAddr: 0x2464, symBinAddr: 0x100006DDC, symSize: 0x3C }
  - { offsetInCU: 0x6890, offset: 0x10328, size: 0x8, addend: 0x0, symName: __ZNSt3__14moveB8ue170006INS_16reverse_iteratorIP4CardEES4_EET0_T_S6_S5_, symObjAddr: 0x254C, symBinAddr: 0x100006EC4, symSize: 0x78 }
  - { offsetInCU: 0x68EA, offset: 0x10382, size: 0x8, addend: 0x0, symName: __ZNSt3__16__moveB8ue170006INS_17_ClassicAlgPolicyENS_16reverse_iteratorIP4CardEES5_S5_EENS_4pairIT0_T2_EES7_T1_S8_, symObjAddr: 0x25C4, symBinAddr: 0x100006F3C, symSize: 0x64 }
  - { offsetInCU: 0x6956, offset: 0x103EE, size: 0x8, addend: 0x0, symName: __ZNSt3__123__dispatch_copy_or_moveB8ue170006INS_17_ClassicAlgPolicyENS_11__move_loopIS1_EENS_14__move_trivialENS_16reverse_iteratorIP4CardEES8_S8_EENS_4pairIT2_T4_EESA_T3_SB_, symObjAddr: 0x2628, symBinAddr: 0x100006FA0, symSize: 0x64 }
  - { offsetInCU: 0x69D4, offset: 0x1046C, size: 0x8, addend: 0x0, symName: __ZNSt3__121__unwrap_and_dispatchB8ue170006INS_10__overloadINS_11__move_loopINS_17_ClassicAlgPolicyEEENS_14__move_trivialEEENS_16reverse_iteratorIP4CardEESA_SA_Li0EEENS_4pairIT0_T2_EESC_T1_SD_, symObjAddr: 0x268C, symBinAddr: 0x100007004, symSize: 0x12C }
  - { offsetInCU: 0x6A65, offset: 0x104FD, size: 0x8, addend: 0x0, symName: __ZNSt3__114__unwrap_rangeB8ue170006INS_16reverse_iteratorIP4CardEES4_EENS_4pairIT0_S6_EET_S8_, symObjAddr: 0x27B8, symBinAddr: 0x100007130, symSize: 0x84 }
  - { offsetInCU: 0x6BE1, offset: 0x10679, size: 0x8, addend: 0x0, symName: __ZNSt3__113__unwrap_iterB8ue170006INS_16reverse_iteratorIP4CardEENS_18__unwrap_iter_implIS4_Lb0EEELi0EEEDTclsrT0_8__unwrapclsr3stdE7declvalIT_EEEES8_, symObjAddr: 0x28DC, symBinAddr: 0x100007254, symSize: 0x44 }
  - { offsetInCU: 0x6C26, offset: 0x106BE, size: 0x8, addend: 0x0, symName: __ZNSt3__19make_pairB8ue170006INS_16reverse_iteratorIP4CardEES4_EENS_4pairINS_18__unwrap_ref_decayIT_E4typeENS6_IT0_E4typeEEEOS7_OSA_, symObjAddr: 0x2920, symBinAddr: 0x100007298, symSize: 0x38 }
  - { offsetInCU: 0x6C75, offset: 0x1070D, size: 0x8, addend: 0x0, symName: __ZNSt3__114__rewrap_rangeB8ue170006INS_16reverse_iteratorIP4CardEES4_EET_S5_T0_, symObjAddr: 0x2958, symBinAddr: 0x1000072D0, symSize: 0x5C }
  - { offsetInCU: 0x6CC1, offset: 0x10759, size: 0x8, addend: 0x0, symName: __ZNSt3__113__rewrap_iterB8ue170006INS_16reverse_iteratorIP4CardEES4_NS_18__unwrap_iter_implIS4_Lb0EEEEET_S7_T0_, symObjAddr: 0x29B4, symBinAddr: 0x10000732C, symSize: 0x74 }
  - { offsetInCU: 0x6D16, offset: 0x107AE, size: 0x8, addend: 0x0, symName: __ZNSt3__1neB8ue170006IP4CardS2_EEbRKNS_16reverse_iteratorIT_EERKNS3_IT0_EE, symObjAddr: 0x2A28, symBinAddr: 0x1000073A0, symSize: 0x48 }
  - { offsetInCU: 0x6F02, offset: 0x1099A, size: 0x8, addend: 0x0, symName: __ZNSt3__1miB8ue170006IPK4CardS3_EEDTmicldtfp_4baseEcldtfp0_4baseEERKNS_11__wrap_iterIT_EERKNS5_IT0_EE, symObjAddr: 0x2F3C, symBinAddr: 0x1000078B4, symSize: 0x48 }
  - { offsetInCU: 0x6F4E, offset: 0x109E6, size: 0x8, addend: 0x0, symName: __ZNSt3__14moveB8ue170006IP4CardS2_EET0_T_S4_S3_, symObjAddr: 0x2FFC, symBinAddr: 0x100007974, symSize: 0x40 }
  - { offsetInCU: 0x6FA8, offset: 0x10A40, size: 0x8, addend: 0x0, symName: __ZNSt3__16__moveB8ue170006INS_17_ClassicAlgPolicyEP4CardS3_S3_EENS_4pairIT0_T2_EES5_T1_S6_, symObjAddr: 0x31EC, symBinAddr: 0x100007B64, symSize: 0x44 }
  - { offsetInCU: 0x7014, offset: 0x10AAC, size: 0x8, addend: 0x0, symName: __ZNSt3__123__dispatch_copy_or_moveB8ue170006INS_17_ClassicAlgPolicyENS_11__move_loopIS1_EENS_14__move_trivialEP4CardS6_S6_EENS_4pairIT2_T4_EES8_T3_S9_, symObjAddr: 0x3230, symBinAddr: 0x100007BA8, symSize: 0x44 }
  - { offsetInCU: 0x7092, offset: 0x10B2A, size: 0x8, addend: 0x0, symName: __ZNSt3__121__unwrap_and_dispatchB8ue170006INS_10__overloadINS_11__move_loopINS_17_ClassicAlgPolicyEEENS_14__move_trivialEEEP4CardS8_S8_Li0EEENS_4pairIT0_T2_EESA_T1_SB_, symObjAddr: 0x3274, symBinAddr: 0x100007BEC, symSize: 0xB4 }
  - { offsetInCU: 0x7121, offset: 0x10BB9, size: 0x8, addend: 0x0, symName: __ZNSt3__114__unwrap_rangeB8ue170006IP4CardS2_EENS_4pairIT0_S4_EET_S6_, symObjAddr: 0x3328, symBinAddr: 0x100007CA0, symSize: 0x60 }
  - { offsetInCU: 0x72B9, offset: 0x10D51, size: 0x8, addend: 0x0, symName: __ZNSt3__113__unwrap_iterB8ue170006IP4CardNS_18__unwrap_iter_implIS2_Lb1EEELi0EEEDTclsrT0_8__unwrapclsr3stdE7declvalIT_EEEES6_, symObjAddr: 0x33D0, symBinAddr: 0x100007D48, symSize: 0x24 }
  - { offsetInCU: 0x72FE, offset: 0x10D96, size: 0x8, addend: 0x0, symName: __ZNSt3__19make_pairB8ue170006IP4CardS2_EENS_4pairINS_18__unwrap_ref_decayIT_E4typeENS4_IT0_E4typeEEEOS5_OS8_, symObjAddr: 0x33F4, symBinAddr: 0x100007D6C, symSize: 0x38 }
  - { offsetInCU: 0x734D, offset: 0x10DE5, size: 0x8, addend: 0x0, symName: __ZNSt3__114__rewrap_rangeB8ue170006IP4CardS2_EET_S3_T0_, symObjAddr: 0x342C, symBinAddr: 0x100007DA4, symSize: 0x2C }
  - { offsetInCU: 0x7399, offset: 0x10E31, size: 0x8, addend: 0x0, symName: __ZNSt3__113__rewrap_iterB8ue170006IP4CardS2_NS_18__unwrap_iter_implIS2_Lb1EEEEET_S5_T0_, symObjAddr: 0x3458, symBinAddr: 0x100007DD0, symSize: 0x3C }
  - { offsetInCU: 0x73EE, offset: 0x10E86, size: 0x8, addend: 0x0, symName: __ZNSt3__119__copy_trivial_implB8ue170006I4CardS1_EENS_4pairIPT_PT0_EES4_S4_S6_, symObjAddr: 0x3494, symBinAddr: 0x100007E0C, symSize: 0x80 }
  - { offsetInCU: 0x7456, offset: 0x10EEE, size: 0x8, addend: 0x0, symName: __ZNSt3__119__constexpr_memmoveB8ue170006I4CardS1_Li0EEEPT_S3_PT0_NS_15__element_countE, symObjAddr: 0x3514, symBinAddr: 0x100007E8C, symSize: 0x64 }
  - { offsetInCU: 0x74C5, offset: 0x10F5D, size: 0x8, addend: 0x0, symName: __ZNSt3__19make_pairB8ue170006IRP4CardS2_EENS_4pairINS_18__unwrap_ref_decayIT_E4typeENS5_IT0_E4typeEEEOS6_OS9_, symObjAddr: 0x3578, symBinAddr: 0x100007EF0, symSize: 0x38 }
  - { offsetInCU: 0x7567, offset: 0x10FFF, size: 0x8, addend: 0x0, symName: __ZNSt3__1neB8ue170006IcNS_11char_traitsIcEENS_9allocatorIcEEEEbRKNS_12basic_stringIT_T0_T1_EEPKS6_, symObjAddr: 0x42CC, symBinAddr: 0x1000088F0, symSize: 0x34 }
  - { offsetInCU: 0x75BF, offset: 0x11057, size: 0x8, addend: 0x0, symName: __ZNSt3__14sortB8ue170006INS_11__wrap_iterIP4CardEEEEvT_S5_, symObjAddr: 0x5200, symBinAddr: 0x100008924, symSize: 0x3C }
  - { offsetInCU: 0x7602, offset: 0x1109A, size: 0x8, addend: 0x0, symName: __ZNSt3__14sortB8ue170006INS_11__wrap_iterIP4CardEENS_6__lessIvvEEEEvT_S7_T0_, symObjAddr: 0x5298, symBinAddr: 0x1000089BC, symSize: 0x40 }
  - { offsetInCU: 0x765D, offset: 0x110F5, size: 0x8, addend: 0x0, symName: __ZNSt3__111__sort_implB8ue170006INS_17_ClassicAlgPolicyENS_11__wrap_iterIP4CardEENS_6__lessIvvEEEEvT0_S8_RT1_, symObjAddr: 0x52D8, symBinAddr: 0x1000089FC, symSize: 0xA8 }
  - { offsetInCU: 0x76C1, offset: 0x11159, size: 0x8, addend: 0x0, symName: __ZNSt3__123__debug_randomize_rangeB8ue170006INS_17_ClassicAlgPolicyENS_11__wrap_iterIP4CardEES5_EEvT0_T1_, symObjAddr: 0x5380, symBinAddr: 0x100008AA4, symSize: 0x14 }
  - { offsetInCU: 0x7713, offset: 0x111AB, size: 0x8, addend: 0x0, symName: __ZNSt3__115__sort_dispatchB8ue170006INS_17_ClassicAlgPolicyEP4CardNS_6__lessIvvEEEEvT0_S6_RT1_, symObjAddr: 0x5394, symBinAddr: 0x100008AB8, symSize: 0x64 }
  - { offsetInCU: 0x7792, offset: 0x1122A, size: 0x8, addend: 0x0, symName: __ZNSt3__113__unwrap_iterB8ue170006INS_11__wrap_iterIP4CardEENS_18__unwrap_iter_implIS4_Lb1EEELi0EEEDTclsrT0_8__unwrapclsr3stdE7declvalIT_EEEES8_, symObjAddr: 0x53F8, symBinAddr: 0x100008B1C, symSize: 0x2C }
  - { offsetInCU: 0x77D7, offset: 0x1126F, size: 0x8, addend: 0x0, symName: __ZNSt3__135__check_strict_weak_ordering_sortedB8ue170006IP4CardNS_6__lessIvvEEEEvT_S5_RT0_, symObjAddr: 0x5424, symBinAddr: 0x100008B48, symSize: 0x18 }
  - { offsetInCU: 0x782E, offset: 0x112C6, size: 0x8, addend: 0x0, symName: __ZNSt3__17__log2iB8ue170006IlEET_S1_, symObjAddr: 0x543C, symBinAddr: 0x100008B60, symSize: 0x54 }
  - { offsetInCU: 0x7865, offset: 0x112FD, size: 0x8, addend: 0x0, symName: __ZNSt3__112__libcpp_clzB8ue170006Em, symObjAddr: 0x58DC, symBinAddr: 0x100009000, symSize: 0x1C }
  - { offsetInCU: 0x7891, offset: 0x11329, size: 0x8, addend: 0x0, symName: __ZNSt3__124__sort3_maybe_branchlessB8ue170006INS_17_ClassicAlgPolicyERNS_6__lessIvvEEP4CardEENS_9enable_ifIXntsr21__use_branchless_sortIT0_T1_EE5valueEvE4typeES9_S9_S9_S8_, symObjAddr: 0x5960, symBinAddr: 0x100009084, symSize: 0x3C }
  - { offsetInCU: 0x7902, offset: 0x1139A, size: 0x8, addend: 0x0, symName: __ZNSt3__124__sort4_maybe_branchlessB8ue170006INS_17_ClassicAlgPolicyERNS_6__lessIvvEEP4CardEENS_9enable_ifIXntsr21__use_branchless_sortIT0_T1_EE5valueEvE4typeES9_S9_S9_S9_S8_, symObjAddr: 0x599C, symBinAddr: 0x1000090C0, symSize: 0x44 }
  - { offsetInCU: 0x7981, offset: 0x11419, size: 0x8, addend: 0x0, symName: __ZNSt3__124__sort5_maybe_branchlessB8ue170006INS_17_ClassicAlgPolicyERNS_6__lessIvvEEP4CardEENS_9enable_ifIXntsr21__use_branchless_sortIT0_T1_EE5valueEvE4typeES9_S9_S9_S9_S9_S8_, symObjAddr: 0x59E0, symBinAddr: 0x100009104, symSize: 0x4C }
  - { offsetInCU: 0x7A0E, offset: 0x114A6, size: 0x8, addend: 0x0, symName: __ZNSt3__116__insertion_sortB8ue170006INS_17_ClassicAlgPolicyERNS_6__lessIvvEEP4CardEEvT1_S7_T0_, symObjAddr: 0x5A2C, symBinAddr: 0x100009150, symSize: 0x150 }
  - { offsetInCU: 0x7AD2, offset: 0x1156A, size: 0x8, addend: 0x0, symName: __ZNSt3__114__partial_sortB8ue170006INS_17_ClassicAlgPolicyERNS_6__lessIvvEEP4CardS6_EET1_S7_S7_T2_RT0_, symObjAddr: 0x5C9C, symBinAddr: 0x1000093C0, symSize: 0x94 }
  - { offsetInCU: 0x7B5A, offset: 0x115F2, size: 0x8, addend: 0x0, symName: __ZNSt3__17__sort3B8ue170006INS_17_ClassicAlgPolicyERNS_6__lessIvvEEP4CardEEjT1_S7_S7_T0_, symObjAddr: 0x5D30, symBinAddr: 0x100009454, symSize: 0x144 }
  - { offsetInCU: 0x7BD9, offset: 0x11671, size: 0x8, addend: 0x0, symName: __ZNSt3__19iter_swapB8ue170006IP4CardS2_EEvT_T0_, symObjAddr: 0x6910, symBinAddr: 0x10000A034, symSize: 0x2C }
  - { offsetInCU: 0x7C22, offset: 0x116BA, size: 0x8, addend: 0x0, symName: __ZNSt3__14swapB8ue170006I4CardEENS_9enable_ifIXaasr21is_move_constructibleIT_EE5valuesr18is_move_assignableIS3_EE5valueEvE4typeERS3_S6_, symObjAddr: 0x693C, symBinAddr: 0x10000A060, symSize: 0x3C }
  - { offsetInCU: 0x7C73, offset: 0x1170B, size: 0x8, addend: 0x0, symName: __ZNSt3__17__sort4B8ue170006INS_17_ClassicAlgPolicyERNS_6__lessIvvEEP4CardEEvT1_S7_S7_S7_T0_, symObjAddr: 0x6978, symBinAddr: 0x10000A09C, symSize: 0xB8 }
  - { offsetInCU: 0x7CEF, offset: 0x11787, size: 0x8, addend: 0x0, symName: __ZNSt3__17__sort5B8ue170006INS_17_ClassicAlgPolicyERNS_6__lessIvvEEP4CardEEvT1_S7_S7_S7_S7_T0_, symObjAddr: 0x6A30, symBinAddr: 0x10000A154, symSize: 0xE8 }
  - { offsetInCU: 0x7D79, offset: 0x11811, size: 0x8, addend: 0x0, symName: __ZNSt3__123__debug_randomize_rangeB8ue170006INS_17_ClassicAlgPolicyEP4CardS3_EEvT0_T1_, symObjAddr: 0x6B5C, symBinAddr: 0x10000A280, symSize: 0x14 }
  - { offsetInCU: 0x7DCB, offset: 0x11863, size: 0x8, addend: 0x0, symName: __ZNSt3__119__partial_sort_implB8ue170006INS_17_ClassicAlgPolicyERNS_6__lessIvvEEP4CardS6_EET1_S7_S7_T2_OT0_, symObjAddr: 0x6B70, symBinAddr: 0x10000A294, symSize: 0x110 }
  - { offsetInCU: 0x7E61, offset: 0x118F9, size: 0x8, addend: 0x0, symName: __ZNSt3__111__make_heapB8ue170006INS_17_ClassicAlgPolicyERNS_6__lessIvvEEP4CardEEvT1_S7_OT0_, symObjAddr: 0x6C80, symBinAddr: 0x10000A3A4, symSize: 0xB8 }
  - { offsetInCU: 0x7F04, offset: 0x1199C, size: 0x8, addend: 0x0, symName: __ZNSt3__111__sort_heapB8ue170006INS_17_ClassicAlgPolicyERNS_6__lessIvvEEP4CardEEvT1_S7_OT0_, symObjAddr: 0x6F44, symBinAddr: 0x10000A668, symSize: 0xA8 }
  - { offsetInCU: 0x7FA7, offset: 0x11A3F, size: 0x8, addend: 0x0, symName: __ZNSt3__110__pop_heapB8ue170006INS_17_ClassicAlgPolicyENS_6__lessIvvEEP4CardEEvT1_S6_RT0_NS_15iterator_traitsIS6_E15difference_typeE, symObjAddr: 0x6FEC, symBinAddr: 0x10000A710, symSize: 0xF4 }
  - { offsetInCU: 0x8058, offset: 0x11AF0, size: 0x8, addend: 0x0, symName: __ZNSt3__19__sift_upB8ue170006INS_17_ClassicAlgPolicyERNS_6__lessIvvEEP4CardEEvT1_S7_OT0_NS_15iterator_traitsIS7_E15difference_typeE, symObjAddr: 0x71E0, symBinAddr: 0x10000A904, symSize: 0x11C }
  - { offsetInCU: 0x8109, offset: 0x11BA1, size: 0x8, addend: 0x0, symName: __ZNSt3__122__populate_left_bitsetB8ue170006IRNS_6__lessIvvEEP4CardS4_EEvT0_T_RT1_Ry, symObjAddr: 0x72FC, symBinAddr: 0x10000AA20, symSize: 0xA8 }
  - { offsetInCU: 0x81C5, offset: 0x11C5D, size: 0x8, addend: 0x0, symName: __ZNSt3__123__populate_right_bitsetB8ue170006IRNS_6__lessIvvEEP4CardS4_EEvT0_T_RT1_Ry, symObjAddr: 0x73A4, symBinAddr: 0x10000AAC8, symSize: 0xA0 }
  - { offsetInCU: 0x8281, offset: 0x11D19, size: 0x8, addend: 0x0, symName: __ZNSt3__117__swap_bitmap_posB8ue170006INS_17_ClassicAlgPolicyEP4CardEEvT0_S4_RyS5_, symObjAddr: 0x7444, symBinAddr: 0x10000AB68, symSize: 0x100 }
  - { offsetInCU: 0x8323, offset: 0x11DBB, size: 0x8, addend: 0x0, symName: __ZNSt3__133__bitset_partition_partial_blocksB8ue170006INS_17_ClassicAlgPolicyERNS_6__lessIvvEEP4CardS5_EEvRT1_S8_T0_RT2_RySC_, symObjAddr: 0x7544, symBinAddr: 0x10000AC68, symSize: 0x2E8 }
  - { offsetInCU: 0x84A5, offset: 0x11F3D, size: 0x8, addend: 0x0, symName: __ZNSt3__19make_pairB8ue170006IRP4CardRbEENS_4pairINS_18__unwrap_ref_decayIT_E4typeENS6_IT0_E4typeEEEOS7_OSA_, symObjAddr: 0x7A0C, symBinAddr: 0x10000B130, symSize: 0x38 }
  - { offsetInCU: 0x84F4, offset: 0x11F8C, size: 0x8, addend: 0x0, symName: __ZNSt3__112__libcpp_ctzB8ue170006Ey, symObjAddr: 0x7A44, symBinAddr: 0x10000B168, symSize: 0x20 }
  - { offsetInCU: 0x8520, offset: 0x11FB8, size: 0x8, addend: 0x0, symName: __ZNSt3__113__libcpp_blsrB8ue170006Ey, symObjAddr: 0x7A64, symBinAddr: 0x10000B188, symSize: 0x2C }
  - { offsetInCU: 0x854C, offset: 0x11FE4, size: 0x8, addend: 0x0, symName: __ZNSt3__112__libcpp_clzB8ue170006Ey, symObjAddr: 0x7AC4, symBinAddr: 0x10000B1E8, symSize: 0x1C }
  - { offsetInCU: 0x86A0, offset: 0x12138, size: 0x8, addend: 0x0, symName: __ZNSt3__112__to_addressB8ue170006INS_11__wrap_iterIP4CardEEvEEu7__decayIDTclsr19__to_address_helperIT_EE6__callclsr3stdE7declvalIRKS5_EEEEES7_, symObjAddr: 0x7B7C, symBinAddr: 0x10000B2A0, symSize: 0x24 }
  - { offsetInCU: 0x877C, offset: 0x12214, size: 0x8, addend: 0x0, symName: __ZNSt3__112__to_addressB8ue170006IKcEEPT_S3_, symObjAddr: 0x7CCC, symBinAddr: 0x10000B39C, symSize: 0x14 }
  - { offsetInCU: 0x8A08, offset: 0x124A0, size: 0x8, addend: 0x0, symName: __ZSt28__throw_bad_array_new_lengthB8ue170006v, symObjAddr: 0x2258, symBinAddr: 0x100006BD0, symSize: 0x34 }
  - { offsetInCU: 0x8DD5, offset: 0x1286D, size: 0x8, addend: 0x0, symName: __ZNSt3__16vectorI4CardNS_9allocatorIS1_EEE26__swap_out_circular_bufferERNS_14__split_bufferIS1_RS3_EE, symObjAddr: 0x1B74, symBinAddr: 0x100006508, symSize: 0x110 }
  - { offsetInCU: 0xAC64, offset: 0x146FC, size: 0x8, addend: 0x0, symName: __Z14Player_factoryRKNSt3__112basic_stringIcNS_11char_traitsIcEENS_9allocatorIcEEEES7_, symObjAddr: 0x0, symBinAddr: 0x100004C30, symSize: 0xFC }
  - { offsetInCU: 0xAF1D, offset: 0x149B5, size: 0x8, addend: 0x0, symName: __ZN12SimplePlayerC1ERKNSt3__112basic_stringIcNS0_11char_traitsIcEENS0_9allocatorIcEEEE, symObjAddr: 0x1A8, symBinAddr: 0x100004D2C, symSize: 0x34 }
  - { offsetInCU: 0xB0A8, offset: 0x14B40, size: 0x8, addend: 0x0, symName: __ZN11HumanPlayerC1ERKNSt3__112basic_stringIcNS0_11char_traitsIcEENS0_9allocatorIcEEEE, symObjAddr: 0x1DC, symBinAddr: 0x100004D60, symSize: 0x34 }
  - { offsetInCU: 0xB0DD, offset: 0x14B75, size: 0x8, addend: 0x0, symName: __ZlsRNSt3__113basic_ostreamIcNS_11char_traitsIcEEEERK6Player, symObjAddr: 0x210, symBinAddr: 0x100004D94, symSize: 0x48 }
  - { offsetInCU: 0xB118, offset: 0x14BB0, size: 0x8, addend: 0x0, symName: __ZN12SimplePlayerC2ERKNSt3__112basic_stringIcNS0_11char_traitsIcEENS0_9allocatorIcEEEE, symObjAddr: 0x2A4, symBinAddr: 0x100004E28, symSize: 0xB0 }
  - { offsetInCU: 0xB14E, offset: 0x14BE6, size: 0x8, addend: 0x0, symName: __ZN6PlayerC2Ev, symObjAddr: 0x354, symBinAddr: 0x100004ED8, symSize: 0x24 }
  - { offsetInCU: 0xB178, offset: 0x14C10, size: 0x8, addend: 0x0, symName: __ZNSt3__16vectorI4CardNS_9allocatorIS1_EEEC1B8ue170006Ev, symObjAddr: 0x3A4, symBinAddr: 0x100004EFC, symSize: 0x2C }
  - { offsetInCU: 0xB1A0, offset: 0x14C38, size: 0x8, addend: 0x0, symName: __ZNSt3__16vectorI4CardNS_9allocatorIS1_EEED1B8ue170006Ev, symObjAddr: 0x3D0, symBinAddr: 0x100004F28, symSize: 0x2C }
  - { offsetInCU: 0xB1C8, offset: 0x14C60, size: 0x8, addend: 0x0, symName: __ZN6PlayerD2Ev, symObjAddr: 0x3FC, symBinAddr: 0x100004F54, symSize: 0x14 }
  - { offsetInCU: 0xB1F1, offset: 0x14C89, size: 0x8, addend: 0x0, symName: __ZNK12SimplePlayer8get_nameEv, symObjAddr: 0x410, symBinAddr: 0x100004F68, symSize: 0x18 }
  - { offsetInCU: 0xB216, offset: 0x14CAE, size: 0x8, addend: 0x0, symName: __ZN12SimplePlayer8add_cardERK4Card, symObjAddr: 0x428, symBinAddr: 0x100004F80, symSize: 0x30 }
  - { offsetInCU: 0xB248, offset: 0x14CE0, size: 0x8, addend: 0x0, symName: __ZNK12SimplePlayer10make_trumpERK4CardbiR4Suit, symObjAddr: 0x458, symBinAddr: 0x100004FB0, symSize: 0x308 }
  - { offsetInCU: 0xB306, offset: 0x14D9E, size: 0x8, addend: 0x0, symName: __ZN12SimplePlayer15add_and_discardERK4Card, symObjAddr: 0x760, symBinAddr: 0x1000052B8, symSize: 0x128 }
  - { offsetInCU: 0xB370, offset: 0x14E08, size: 0x8, addend: 0x0, symName: __ZN12SimplePlayer9lead_cardE4Suit, symObjAddr: 0x888, symBinAddr: 0x1000053E0, symSize: 0x1C0 }
  - { offsetInCU: 0xB3DA, offset: 0x14E72, size: 0x8, addend: 0x0, symName: __ZN12SimplePlayer9play_cardERK4Card4Suit, symObjAddr: 0xA48, symBinAddr: 0x1000055A0, symSize: 0x354 }
  - { offsetInCU: 0xB4CE, offset: 0x14F66, size: 0x8, addend: 0x0, symName: __ZN12SimplePlayerD1Ev, symObjAddr: 0xD9C, symBinAddr: 0x1000058F4, symSize: 0x2C }
  - { offsetInCU: 0xB4F8, offset: 0x14F90, size: 0x8, addend: 0x0, symName: __ZN12SimplePlayerD0Ev, symObjAddr: 0xDC8, symBinAddr: 0x100005920, symSize: 0x30 }
  - { offsetInCU: 0xB522, offset: 0x14FBA, size: 0x8, addend: 0x0, symName: __ZN6PlayerD1Ev, symObjAddr: 0xDF8, symBinAddr: 0x100005950, symSize: 0x14 }
  - { offsetInCU: 0xB54B, offset: 0x14FE3, size: 0x8, addend: 0x0, symName: __ZN6PlayerD0Ev, symObjAddr: 0xE0C, symBinAddr: 0x100005964, symSize: 0xC }
  - { offsetInCU: 0xB579, offset: 0x15011, size: 0x8, addend: 0x0, symName: __ZNSt3__16vectorI4CardNS_9allocatorIS1_EEEC2B8ue170006Ev, symObjAddr: 0xFDC, symBinAddr: 0x100005970, symSize: 0x4C }
  - { offsetInCU: 0xB5A6, offset: 0x1503E, size: 0x8, addend: 0x0, symName: __ZNSt3__117__compressed_pairIP4CardNS_9allocatorIS1_EEEC1B8ue170006IDnNS_18__default_init_tagEEEOT_OT0_, symObjAddr: 0x1028, symBinAddr: 0x1000059BC, symSize: 0x3C }
  - { offsetInCU: 0xB5FC, offset: 0x15094, size: 0x8, addend: 0x0, symName: __ZNSt3__117__compressed_pairIP4CardNS_9allocatorIS1_EEEC2B8ue170006IDnNS_18__default_init_tagEEEOT_OT0_, symObjAddr: 0x1064, symBinAddr: 0x1000059F8, symSize: 0x40 }
  - { offsetInCU: 0xB652, offset: 0x150EA, size: 0x8, addend: 0x0, symName: __ZNSt3__122__compressed_pair_elemIP4CardLi0ELb0EEC2B8ue170006IDnvEEOT_, symObjAddr: 0x10A4, symBinAddr: 0x100005A38, symSize: 0x1C }
  - { offsetInCU: 0xB693, offset: 0x1512B, size: 0x8, addend: 0x0, symName: __ZNSt3__122__compressed_pair_elemINS_9allocatorI4CardEELi1ELb1EEC2B8ue170006ENS_18__default_init_tagE, symObjAddr: 0x10C0, symBinAddr: 0x100005A54, symSize: 0x2C }
  - { offsetInCU: 0xB6C6, offset: 0x1515E, size: 0x8, addend: 0x0, symName: __ZNSt3__19allocatorI4CardEC2B8ue170006Ev, symObjAddr: 0x10EC, symBinAddr: 0x100005A80, symSize: 0x2C }
  - { offsetInCU: 0xB6EE, offset: 0x15186, size: 0x8, addend: 0x0, symName: __ZNSt3__116__non_trivial_ifILb1ENS_9allocatorI4CardEEEC2B8ue170006Ev, symObjAddr: 0x1118, symBinAddr: 0x100005AAC, symSize: 0x14 }
  - { offsetInCU: 0xB717, offset: 0x151AF, size: 0x8, addend: 0x0, symName: __ZNSt3__16vectorI4CardNS_9allocatorIS1_EEED2B8ue170006Ev, symObjAddr: 0x112C, symBinAddr: 0x100005AC0, symSize: 0x44 }
  - { offsetInCU: 0xB73F, offset: 0x151D7, size: 0x8, addend: 0x0, symName: __ZNSt3__16vectorI4CardNS_9allocatorIS1_EEE16__destroy_vectorC1B8ue170006ERS4_, symObjAddr: 0x1170, symBinAddr: 0x100005B04, symSize: 0x34 }
  - { offsetInCU: 0xB776, offset: 0x1520E, size: 0x8, addend: 0x0, symName: __ZNSt3__16vectorI4CardNS_9allocatorIS1_EEE16__destroy_vectorclB8ue170006Ev, symObjAddr: 0x11A4, symBinAddr: 0x100005B38, symSize: 0x90 }
  - { offsetInCU: 0xB79A, offset: 0x15232, size: 0x8, addend: 0x0, symName: __ZNSt3__16vectorI4CardNS_9allocatorIS1_EEE16__destroy_vectorC2B8ue170006ERS4_, symObjAddr: 0x1234, symBinAddr: 0x100005BC8, symSize: 0x20 }
  - { offsetInCU: 0xB7D2, offset: 0x1526A, size: 0x8, addend: 0x0, symName: __ZNSt3__16vectorI4CardNS_9allocatorIS1_EEE7__clearB8ue170006Ev, symObjAddr: 0x1254, symBinAddr: 0x100005BE8, symSize: 0x28 }
  - { offsetInCU: 0xB7F6, offset: 0x1528E, size: 0x8, addend: 0x0, symName: __ZNKSt3__16vectorI4CardNS_9allocatorIS1_EEE17__annotate_deleteB8ue170006Ev, symObjAddr: 0x127C, symBinAddr: 0x100005C10, symSize: 0xB8 }
  - { offsetInCU: 0xB81A, offset: 0x152B2, size: 0x8, addend: 0x0, symName: __ZNSt3__116allocator_traitsINS_9allocatorI4CardEEE10deallocateB8ue170006ERS3_PS2_m, symObjAddr: 0x1334, symBinAddr: 0x100005CC8, symSize: 0x34 }
  - { offsetInCU: 0xB85C, offset: 0x152F4, size: 0x8, addend: 0x0, symName: __ZNSt3__16vectorI4CardNS_9allocatorIS1_EEE7__allocB8ue170006Ev, symObjAddr: 0x1368, symBinAddr: 0x100005CFC, symSize: 0x28 }
  - { offsetInCU: 0xB880, offset: 0x15318, size: 0x8, addend: 0x0, symName: __ZNKSt3__16vectorI4CardNS_9allocatorIS1_EEE8capacityB8ue170006Ev, symObjAddr: 0x1390, symBinAddr: 0x100005D24, symSize: 0x40 }
  - { offsetInCU: 0xB8A4, offset: 0x1533C, size: 0x8, addend: 0x0, symName: __ZNSt3__16vectorI4CardNS_9allocatorIS1_EEE22__base_destruct_at_endB8ue170006EPS1_, symObjAddr: 0x13D0, symBinAddr: 0x100005D64, symSize: 0x8C }
  - { offsetInCU: 0xB8E6, offset: 0x1537E, size: 0x8, addend: 0x0, symName: __ZNSt3__116allocator_traitsINS_9allocatorI4CardEEE7destroyB8ue170006IS2_vEEvRS3_PT_, symObjAddr: 0x145C, symBinAddr: 0x100005DF0, symSize: 0x2C }
  - { offsetInCU: 0xB923, offset: 0x153BB, size: 0x8, addend: 0x0, symName: __ZNSt3__19allocatorI4CardE7destroyB8ue170006EPS1_, symObjAddr: 0x149C, symBinAddr: 0x100005E30, symSize: 0x14 }
  - { offsetInCU: 0xB956, offset: 0x153EE, size: 0x8, addend: 0x0, symName: __ZNKSt3__16vectorI4CardNS_9allocatorIS1_EEE31__annotate_contiguous_containerB8ue170006EPKvS6_S6_S6_, symObjAddr: 0x14B0, symBinAddr: 0x100005E44, symSize: 0x20 }
  - { offsetInCU: 0xB9AB, offset: 0x15443, size: 0x8, addend: 0x0, symName: __ZNKSt3__16vectorI4CardNS_9allocatorIS1_EEE4dataB8ue170006Ev, symObjAddr: 0x14D0, symBinAddr: 0x100005E64, symSize: 0x28 }
  - { offsetInCU: 0xB9CF, offset: 0x15467, size: 0x8, addend: 0x0, symName: __ZNKSt3__16vectorI4CardNS_9allocatorIS1_EEE4sizeB8ue170006Ev, symObjAddr: 0x14F8, symBinAddr: 0x100005E8C, symSize: 0x28 }
  - { offsetInCU: 0xB9F4, offset: 0x1548C, size: 0x8, addend: 0x0, symName: __ZNSt3__19allocatorI4CardE10deallocateB8ue170006EPS1_m, symObjAddr: 0x1520, symBinAddr: 0x100005EB4, symSize: 0x40 }
  - { offsetInCU: 0xBA34, offset: 0x154CC, size: 0x8, addend: 0x0, symName: __ZNSt3__117__compressed_pairIP4CardNS_9allocatorIS1_EEE6secondB8ue170006Ev, symObjAddr: 0x1688, symBinAddr: 0x10000601C, symSize: 0x24 }
  - { offsetInCU: 0xBA58, offset: 0x154F0, size: 0x8, addend: 0x0, symName: __ZNSt3__122__compressed_pair_elemINS_9allocatorI4CardEELi1ELb1EE5__getB8ue170006Ev, symObjAddr: 0x16AC, symBinAddr: 0x100006040, symSize: 0x14 }
  - { offsetInCU: 0xBA7D, offset: 0x15515, size: 0x8, addend: 0x0, symName: __ZNKSt3__16vectorI4CardNS_9allocatorIS1_EEE9__end_capB8ue170006Ev, symObjAddr: 0x16C0, symBinAddr: 0x100006054, symSize: 0x28 }
  - { offsetInCU: 0xBAA1, offset: 0x15539, size: 0x8, addend: 0x0, symName: __ZNKSt3__117__compressed_pairIP4CardNS_9allocatorIS1_EEE5firstB8ue170006Ev, symObjAddr: 0x16E8, symBinAddr: 0x10000607C, symSize: 0x24 }
  - { offsetInCU: 0xBAC5, offset: 0x1555D, size: 0x8, addend: 0x0, symName: __ZNKSt3__122__compressed_pair_elemIP4CardLi0ELb0EE5__getB8ue170006Ev, symObjAddr: 0x170C, symBinAddr: 0x1000060A0, symSize: 0x14 }
  - { offsetInCU: 0xBAEA, offset: 0x15582, size: 0x8, addend: 0x0, symName: __ZNSt3__16vectorI4CardNS_9allocatorIS1_EEE9push_backB8ue170006ERKS1_, symObjAddr: 0x1720, symBinAddr: 0x1000060B4, symSize: 0x6C }
  - { offsetInCU: 0xBB20, offset: 0x155B8, size: 0x8, addend: 0x0, symName: __ZNSt3__16vectorI4CardNS_9allocatorIS1_EEE9__end_capB8ue170006Ev, symObjAddr: 0x178C, symBinAddr: 0x100006120, symSize: 0x28 }
  - { offsetInCU: 0xBB44, offset: 0x155DC, size: 0x8, addend: 0x0, symName: __ZNSt3__16vectorI4CardNS_9allocatorIS1_EEE22__construct_one_at_endB8ue170006IJRKS1_EEEvDpOT_, symObjAddr: 0x17B4, symBinAddr: 0x100006148, symSize: 0x90 }
  - { offsetInCU: 0xBB93, offset: 0x1562B, size: 0x8, addend: 0x0, symName: __ZNSt3__16vectorI4CardNS_9allocatorIS1_EEE21__push_back_slow_pathIRKS1_EEvOT_, symObjAddr: 0x1844, symBinAddr: 0x1000061D8, symSize: 0xD8 }
  - { offsetInCU: 0xBBF0, offset: 0x15688, size: 0x8, addend: 0x0, symName: __ZNSt3__117__compressed_pairIP4CardNS_9allocatorIS1_EEE5firstB8ue170006Ev, symObjAddr: 0x191C, symBinAddr: 0x1000062B0, symSize: 0x24 }
  - { offsetInCU: 0xBC14, offset: 0x156AC, size: 0x8, addend: 0x0, symName: __ZNSt3__122__compressed_pair_elemIP4CardLi0ELb0EE5__getB8ue170006Ev, symObjAddr: 0x1940, symBinAddr: 0x1000062D4, symSize: 0x14 }
  - { offsetInCU: 0xBC52, offset: 0x156EA, size: 0x8, addend: 0x0, symName: __ZNSt3__16vectorI4CardNS_9allocatorIS1_EEE21_ConstructTransactionC1B8ue170006ERS4_m, symObjAddr: 0x1954, symBinAddr: 0x1000062E8, symSize: 0x3C }
  - { offsetInCU: 0xBC98, offset: 0x15730, size: 0x8, addend: 0x0, symName: __ZNSt3__116allocator_traitsINS_9allocatorI4CardEEE9constructB8ue170006IS2_JRKS2_EvEEvRS3_PT_DpOT0_, symObjAddr: 0x1990, symBinAddr: 0x100006324, symSize: 0x34 }
  - { offsetInCU: 0xBCF1, offset: 0x15789, size: 0x8, addend: 0x0, symName: __ZNSt3__16vectorI4CardNS_9allocatorIS1_EEE21_ConstructTransactionD1B8ue170006Ev, symObjAddr: 0x19C4, symBinAddr: 0x100006358, symSize: 0x2C }
  - { offsetInCU: 0xBD19, offset: 0x157B1, size: 0x8, addend: 0x0, symName: __ZNSt3__16vectorI4CardNS_9allocatorIS1_EEE21_ConstructTransactionC2B8ue170006ERS4_m, symObjAddr: 0x19F0, symBinAddr: 0x100006384, symSize: 0x44 }
  - { offsetInCU: 0xBD60, offset: 0x157F8, size: 0x8, addend: 0x0, symName: __ZNSt3__19allocatorI4CardE9constructB8ue170006IS1_JRKS1_EEEvPT_DpOT0_, symObjAddr: 0x1A34, symBinAddr: 0x1000063C8, symSize: 0x28 }
  - { offsetInCU: 0xBDB7, offset: 0x1584F, size: 0x8, addend: 0x0, symName: __ZNSt3__16vectorI4CardNS_9allocatorIS1_EEE21_ConstructTransactionD2B8ue170006Ev, symObjAddr: 0x1A5C, symBinAddr: 0x1000063F0, symSize: 0x20 }
  - { offsetInCU: 0xBDE0, offset: 0x15878, size: 0x8, addend: 0x0, symName: __ZNKSt3__16vectorI4CardNS_9allocatorIS1_EEE11__recommendB8ue170006Em, symObjAddr: 0x1A7C, symBinAddr: 0x100006410, symSize: 0xB4 }
  - { offsetInCU: 0xBE34, offset: 0x158CC, size: 0x8, addend: 0x0, symName: __ZNSt3__114__split_bufferI4CardRNS_9allocatorIS1_EEEC1EmmS4_, symObjAddr: 0x1B30, symBinAddr: 0x1000064C4, symSize: 0x44 }
  - { offsetInCU: 0xBE89, offset: 0x15921, size: 0x8, addend: 0x0, symName: __ZNSt3__114__split_bufferI4CardRNS_9allocatorIS1_EEED1Ev, symObjAddr: 0x1C84, symBinAddr: 0x100006618, symSize: 0x2C }
  - { offsetInCU: 0xBEB4, offset: 0x1594C, size: 0x8, addend: 0x0, symName: __ZNKSt3__16vectorI4CardNS_9allocatorIS1_EEE8max_sizeEv, symObjAddr: 0x1CB0, symBinAddr: 0x100006644, symSize: 0x60 }
  - { offsetInCU: 0xBEDB, offset: 0x15973, size: 0x8, addend: 0x0, symName: __ZNKSt3__16vectorI4CardNS_9allocatorIS1_EEE20__throw_length_errorB8ue170006Ev, symObjAddr: 0x1D10, symBinAddr: 0x1000066A4, symSize: 0x1C }
  - { offsetInCU: 0xBF09, offset: 0x159A1, size: 0x8, addend: 0x0, symName: __ZNSt3__116allocator_traitsINS_9allocatorI4CardEEE8max_sizeB8ue170006IS3_vEEmRKS3_, symObjAddr: 0x1D84, symBinAddr: 0x100006718, symSize: 0x24 }
  - { offsetInCU: 0xBF37, offset: 0x159CF, size: 0x8, addend: 0x0, symName: __ZNKSt3__16vectorI4CardNS_9allocatorIS1_EEE7__allocB8ue170006Ev, symObjAddr: 0x1DA8, symBinAddr: 0x10000673C, symSize: 0x28 }
  - { offsetInCU: 0xBF6F, offset: 0x15A07, size: 0x8, addend: 0x0, symName: __ZNKSt3__16__lessIvvEclB8ue170006ImmEEbRKT_RKT0_, symObjAddr: 0x1E38, symBinAddr: 0x1000067B8, symSize: 0x34 }
  - { offsetInCU: 0xBFC2, offset: 0x15A5A, size: 0x8, addend: 0x0, symName: __ZNKSt3__19allocatorI4CardE8max_sizeB8ue170006Ev, symObjAddr: 0x1E6C, symBinAddr: 0x1000067EC, symSize: 0x14 }
  - { offsetInCU: 0xBFE7, offset: 0x15A7F, size: 0x8, addend: 0x0, symName: __ZNKSt3__117__compressed_pairIP4CardNS_9allocatorIS1_EEE6secondB8ue170006Ev, symObjAddr: 0x1E80, symBinAddr: 0x100006800, symSize: 0x24 }
  - { offsetInCU: 0xC00B, offset: 0x15AA3, size: 0x8, addend: 0x0, symName: __ZNKSt3__122__compressed_pair_elemINS_9allocatorI4CardEELi1ELb1EE5__getB8ue170006Ev, symObjAddr: 0x1EA4, symBinAddr: 0x100006824, symSize: 0x14 }
  - { offsetInCU: 0xC030, offset: 0x15AC8, size: 0x8, addend: 0x0, symName: __ZNSt12length_errorC1B8ue170006EPKc, symObjAddr: 0x1F24, symBinAddr: 0x10000689C, symSize: 0x34 }
  - { offsetInCU: 0xC066, offset: 0x15AFE, size: 0x8, addend: 0x0, symName: __ZNSt12length_errorC2B8ue170006EPKc, symObjAddr: 0x1F58, symBinAddr: 0x1000068D0, symSize: 0x4C }
  - { offsetInCU: 0xC09C, offset: 0x15B34, size: 0x8, addend: 0x0, symName: __ZNSt3__114__split_bufferI4CardRNS_9allocatorIS1_EEEC2EmmS4_, symObjAddr: 0x1FF8, symBinAddr: 0x100006970, symSize: 0xD4 }
  - { offsetInCU: 0xC10E, offset: 0x15BA6, size: 0x8, addend: 0x0, symName: __ZNSt3__117__compressed_pairIP4CardRNS_9allocatorIS1_EEEC1B8ue170006IDnS5_EEOT_OT0_, symObjAddr: 0x20CC, symBinAddr: 0x100006A44, symSize: 0x3C }
  - { offsetInCU: 0xC164, offset: 0x15BFC, size: 0x8, addend: 0x0, symName: __ZNSt3__114__split_bufferI4CardRNS_9allocatorIS1_EEE7__allocB8ue170006Ev, symObjAddr: 0x2148, symBinAddr: 0x100006AC0, symSize: 0x28 }
  - { offsetInCU: 0xC188, offset: 0x15C20, size: 0x8, addend: 0x0, symName: __ZNSt3__114__split_bufferI4CardRNS_9allocatorIS1_EEE9__end_capB8ue170006Ev, symObjAddr: 0x2170, symBinAddr: 0x100006AE8, symSize: 0x28 }
  - { offsetInCU: 0xC1AC, offset: 0x15C44, size: 0x8, addend: 0x0, symName: __ZNSt3__117__compressed_pairIP4CardRNS_9allocatorIS1_EEEC2B8ue170006IDnS5_EEOT_OT0_, symObjAddr: 0x2198, symBinAddr: 0x100006B10, symSize: 0x48 }
  - { offsetInCU: 0xC202, offset: 0x15C9A, size: 0x8, addend: 0x0, symName: __ZNSt3__122__compressed_pair_elemIRNS_9allocatorI4CardEELi1ELb0EEC2B8ue170006IS4_vEEOT_, symObjAddr: 0x21E0, symBinAddr: 0x100006B58, symSize: 0x20 }
  - { offsetInCU: 0xC243, offset: 0x15CDB, size: 0x8, addend: 0x0, symName: __ZNSt3__19allocatorI4CardE8allocateB8ue170006Em, symObjAddr: 0x2200, symBinAddr: 0x100006B78, symSize: 0x58 }
  - { offsetInCU: 0xC275, offset: 0x15D0D, size: 0x8, addend: 0x0, symName: __ZNSt3__117__compressed_pairIP4CardRNS_9allocatorIS1_EEE6secondB8ue170006Ev, symObjAddr: 0x233C, symBinAddr: 0x100006CB4, symSize: 0x28 }
  - { offsetInCU: 0xC299, offset: 0x15D31, size: 0x8, addend: 0x0, symName: __ZNSt3__122__compressed_pair_elemIRNS_9allocatorI4CardEELi1ELb0EE5__getB8ue170006Ev, symObjAddr: 0x2364, symBinAddr: 0x100006CDC, symSize: 0x18 }
  - { offsetInCU: 0xC2BE, offset: 0x15D56, size: 0x8, addend: 0x0, symName: __ZNSt3__117__compressed_pairIP4CardRNS_9allocatorIS1_EEE5firstB8ue170006Ev, symObjAddr: 0x237C, symBinAddr: 0x100006CF4, symSize: 0x24 }
  - { offsetInCU: 0xC2E2, offset: 0x15D7A, size: 0x8, addend: 0x0, symName: __ZNSt3__116reverse_iteratorIP4CardEC1B8ue170006ES2_, symObjAddr: 0x2418, symBinAddr: 0x100006D90, symSize: 0x34 }
  - { offsetInCU: 0xC318, offset: 0x15DB0, size: 0x8, addend: 0x0, symName: __ZNKSt3__116reverse_iteratorIP4CardE4baseB8ue170006Ev, symObjAddr: 0x244C, symBinAddr: 0x100006DC4, symSize: 0x18 }
  - { offsetInCU: 0xC33D, offset: 0x15DD5, size: 0x8, addend: 0x0, symName: __ZNKSt3__16vectorI4CardNS_9allocatorIS1_EEE14__annotate_newB8ue170006Em, symObjAddr: 0x24A0, symBinAddr: 0x100006E18, symSize: 0xAC }
  - { offsetInCU: 0xC393, offset: 0x15E2B, size: 0x8, addend: 0x0, symName: __ZNKSt3__111__move_loopINS_17_ClassicAlgPolicyEEclB8ue170006INS_16reverse_iteratorIP4CardEES7_S7_EENS_4pairIT_T1_EES9_T0_SA_, symObjAddr: 0x283C, symBinAddr: 0x1000071B4, symSize: 0xA0 }
  - { offsetInCU: 0xC401, offset: 0x15E99, size: 0x8, addend: 0x0, symName: __ZNSt3__18_IterOpsINS_17_ClassicAlgPolicyEE11__iter_moveB8ue170006IRNS_16reverse_iteratorIP4CardEEEENS_9enable_ifIXsr12is_referenceIDTdeclsr3stdE7declvalIRT_EEEEE5valueEDTclsr3stdE4movedeclsr3stdE7declvalISB_EEEEE4typeEOSA_, symObjAddr: 0x2A70, symBinAddr: 0x1000073E8, symSize: 0x28 }
  - { offsetInCU: 0xC42D, offset: 0x15EC5, size: 0x8, addend: 0x0, symName: __ZNKSt3__116reverse_iteratorIP4CardEdeB8ue170006Ev, symObjAddr: 0x2A98, symBinAddr: 0x100007410, symSize: 0x28 }
  - { offsetInCU: 0xC460, offset: 0x15EF8, size: 0x8, addend: 0x0, symName: __ZNSt3__116reverse_iteratorIP4CardEppB8ue170006Ev, symObjAddr: 0x2AC0, symBinAddr: 0x100007438, symSize: 0x20 }
  - { offsetInCU: 0xC485, offset: 0x15F1D, size: 0x8, addend: 0x0, symName: __ZNSt3__18_IterOpsINS_17_ClassicAlgPolicyEE25__validate_iter_referenceB8ue170006IRNS_16reverse_iteratorIP4CardEEEEvv, symObjAddr: 0x2AE0, symBinAddr: 0x100007458, symSize: 0x4 }
  - { offsetInCU: 0xC4A3, offset: 0x15F3B, size: 0x8, addend: 0x0, symName: __ZNSt3__118__unwrap_iter_implINS_16reverse_iteratorIP4CardEELb0EE8__unwrapB8ue170006ES4_, symObjAddr: 0x2AE4, symBinAddr: 0x10000745C, symSize: 0x24 }
  - { offsetInCU: 0xC4CB, offset: 0x15F63, size: 0x8, addend: 0x0, symName: __ZNSt3__14pairINS_16reverse_iteratorIP4CardEES4_EC1B8ue170006IS4_S4_LPv0EEEOT_OT0_, symObjAddr: 0x2B08, symBinAddr: 0x100007480, symSize: 0x3C }
  - { offsetInCU: 0xC528, offset: 0x15FC0, size: 0x8, addend: 0x0, symName: __ZNSt3__14pairINS_16reverse_iteratorIP4CardEES4_EC2B8ue170006IS4_S4_LPv0EEEOT_OT0_, symObjAddr: 0x2B44, symBinAddr: 0x1000074BC, symSize: 0x34 }
  - { offsetInCU: 0xC586, offset: 0x1601E, size: 0x8, addend: 0x0, symName: __ZNSt3__118__unwrap_iter_implINS_16reverse_iteratorIP4CardEELb0EE8__rewrapB8ue170006ES4_S4_, symObjAddr: 0x2B78, symBinAddr: 0x1000074F0, symSize: 0x2C }
  - { offsetInCU: 0xC5B4, offset: 0x1604C, size: 0x8, addend: 0x0, symName: __ZNSt3__116reverse_iteratorIP4CardEC2B8ue170006ES2_, symObjAddr: 0x2BA4, symBinAddr: 0x10000751C, symSize: 0x28 }
  - { offsetInCU: 0xC5EB, offset: 0x16083, size: 0x8, addend: 0x0, symName: __ZNSt3__114__split_bufferI4CardRNS_9allocatorIS1_EEED2Ev, symObjAddr: 0x2BCC, symBinAddr: 0x100007544, symSize: 0x8C }
  - { offsetInCU: 0xC616, offset: 0x160AE, size: 0x8, addend: 0x0, symName: __ZNSt3__114__split_bufferI4CardRNS_9allocatorIS1_EEE5clearB8ue170006Ev, symObjAddr: 0x2C58, symBinAddr: 0x1000075D0, symSize: 0x28 }
  - { offsetInCU: 0xC63A, offset: 0x160D2, size: 0x8, addend: 0x0, symName: __ZNKSt3__114__split_bufferI4CardRNS_9allocatorIS1_EEE8capacityB8ue170006Ev, symObjAddr: 0x2C80, symBinAddr: 0x1000075F8, symSize: 0x40 }
  - { offsetInCU: 0xC65E, offset: 0x160F6, size: 0x8, addend: 0x0, symName: __ZNSt3__114__split_bufferI4CardRNS_9allocatorIS1_EEE17__destruct_at_endB8ue170006EPS1_, symObjAddr: 0x2CC0, symBinAddr: 0x100007638, symSize: 0x2C }
  - { offsetInCU: 0xC690, offset: 0x16128, size: 0x8, addend: 0x0, symName: __ZNSt3__114__split_bufferI4CardRNS_9allocatorIS1_EEE17__destruct_at_endB8ue170006EPS1_NS_17integral_constantIbLb0EEE, symObjAddr: 0x2CEC, symBinAddr: 0x100007664, symSize: 0x80 }
  - { offsetInCU: 0xC6D0, offset: 0x16168, size: 0x8, addend: 0x0, symName: __ZNKSt3__114__split_bufferI4CardRNS_9allocatorIS1_EEE9__end_capB8ue170006Ev, symObjAddr: 0x2D6C, symBinAddr: 0x1000076E4, symSize: 0x28 }
  - { offsetInCU: 0xC6F4, offset: 0x1618C, size: 0x8, addend: 0x0, symName: __ZNKSt3__117__compressed_pairIP4CardRNS_9allocatorIS1_EEE5firstB8ue170006Ev, symObjAddr: 0x2D94, symBinAddr: 0x10000770C, symSize: 0x24 }
  - { offsetInCU: 0xC718, offset: 0x161B0, size: 0x8, addend: 0x0, symName: __ZNKSt3__16vectorI4CardNS_9allocatorIS1_EEEixB8ue170006Em, symObjAddr: 0x2DB8, symBinAddr: 0x100007730, symSize: 0x24 }
  - { offsetInCU: 0xC74E, offset: 0x161E6, size: 0x8, addend: 0x0, symName: __ZNSt3__16vectorI4CardNS_9allocatorIS1_EEEixB8ue170006Em, symObjAddr: 0x2DDC, symBinAddr: 0x100007754, symSize: 0x24 }
  - { offsetInCU: 0xC784, offset: 0x1621C, size: 0x8, addend: 0x0, symName: __ZNSt3__16vectorI4CardNS_9allocatorIS1_EEE5eraseB8ue170006ENS_11__wrap_iterIPKS1_EE, symObjAddr: 0x2E00, symBinAddr: 0x100007778, symSize: 0x94 }
  - { offsetInCU: 0xC7D8, offset: 0x16270, size: 0x8, addend: 0x0, symName: __ZNSt3__16vectorI4CardNS_9allocatorIS1_EEE5beginB8ue170006Ev, symObjAddr: 0x2E94, symBinAddr: 0x10000780C, symSize: 0x30 }
  - { offsetInCU: 0xC7FF, offset: 0x16297, size: 0x8, addend: 0x0, symName: __ZNKSt3__111__wrap_iterIP4CardEplB8ue170006El, symObjAddr: 0x2EC4, symBinAddr: 0x10000783C, symSize: 0x3C }
  - { offsetInCU: 0xC849, offset: 0x162E1, size: 0x8, addend: 0x0, symName: __ZNSt3__111__wrap_iterIPK4CardEC1B8ue170006IPS1_EERKNS0_IT_EEPNS_9enable_ifIXsr14is_convertibleIS7_S3_EE5valueEvE4typeE, symObjAddr: 0x2F00, symBinAddr: 0x100007878, symSize: 0x3C }
  - { offsetInCU: 0xC893, offset: 0x1632B, size: 0x8, addend: 0x0, symName: __ZNKSt3__16vectorI4CardNS_9allocatorIS1_EEE6cbeginB8ue170006Ev, symObjAddr: 0x2F84, symBinAddr: 0x1000078FC, symSize: 0x2C }
  - { offsetInCU: 0xC8B7, offset: 0x1634F, size: 0x8, addend: 0x0, symName: __ZNSt3__16vectorI4CardNS_9allocatorIS1_EEE17__destruct_at_endB8ue170006EPS1_, symObjAddr: 0x2FB0, symBinAddr: 0x100007928, symSize: 0x4C }
  - { offsetInCU: 0xC8F9, offset: 0x16391, size: 0x8, addend: 0x0, symName: __ZNSt3__16vectorI4CardNS_9allocatorIS1_EEE11__make_iterB8ue170006EPS1_, symObjAddr: 0x303C, symBinAddr: 0x1000079B4, symSize: 0x30 }
  - { offsetInCU: 0xC92C, offset: 0x163C4, size: 0x8, addend: 0x0, symName: __ZNKSt3__111__wrap_iterIPK4CardE4baseB8ue170006Ev, symObjAddr: 0x306C, symBinAddr: 0x1000079E4, symSize: 0x18 }
  - { offsetInCU: 0xC951, offset: 0x163E9, size: 0x8, addend: 0x0, symName: __ZNKSt3__16vectorI4CardNS_9allocatorIS1_EEE5beginB8ue170006Ev, symObjAddr: 0x3084, symBinAddr: 0x1000079FC, symSize: 0x30 }
  - { offsetInCU: 0xC978, offset: 0x16410, size: 0x8, addend: 0x0, symName: __ZNKSt3__16vectorI4CardNS_9allocatorIS1_EEE11__make_iterB8ue170006EPKS1_, symObjAddr: 0x30B4, symBinAddr: 0x100007A2C, symSize: 0x30 }
  - { offsetInCU: 0xC9AB, offset: 0x16443, size: 0x8, addend: 0x0, symName: __ZNSt3__111__wrap_iterIPK4CardEC1B8ue170006ES3_, symObjAddr: 0x30E4, symBinAddr: 0x100007A5C, symSize: 0x34 }
  - { offsetInCU: 0xC9E1, offset: 0x16479, size: 0x8, addend: 0x0, symName: __ZNSt3__111__wrap_iterIPK4CardEC2B8ue170006ES3_, symObjAddr: 0x3118, symBinAddr: 0x100007A90, symSize: 0x20 }
  - { offsetInCU: 0xCA18, offset: 0x164B0, size: 0x8, addend: 0x0, symName: __ZNKSt3__16vectorI4CardNS_9allocatorIS1_EEE17__annotate_shrinkB8ue170006Em, symObjAddr: 0x3138, symBinAddr: 0x100007AB0, symSize: 0xB4 }
  - { offsetInCU: 0xCA6E, offset: 0x16506, size: 0x8, addend: 0x0, symName: __ZNKSt3__114__move_trivialclB8ue170006I4CardS2_Li0EEENS_4pairIPT_PT0_EES5_S5_S7_, symObjAddr: 0x3388, symBinAddr: 0x100007D00, symSize: 0x48 }
  - { offsetInCU: 0xCADA, offset: 0x16572, size: 0x8, addend: 0x0, symName: __ZNSt3__14pairIP4CardS2_EC1B8ue170006IRS2_S2_LPv0EEEOT_OT0_, symObjAddr: 0x35B0, symBinAddr: 0x100007F28, symSize: 0x3C }
  - { offsetInCU: 0xCB37, offset: 0x165CF, size: 0x8, addend: 0x0, symName: __ZNSt3__14pairIP4CardS2_EC2B8ue170006IRS2_S2_LPv0EEEOT_OT0_, symObjAddr: 0x35EC, symBinAddr: 0x100007F64, symSize: 0x34 }
  - { offsetInCU: 0xCB95, offset: 0x1662D, size: 0x8, addend: 0x0, symName: __ZNSt3__118__unwrap_iter_implIP4CardLb1EE8__unwrapB8ue170006ES2_, symObjAddr: 0x3620, symBinAddr: 0x100007F98, symSize: 0x24 }
  - { offsetInCU: 0xCBB8, offset: 0x16650, size: 0x8, addend: 0x0, symName: __ZNSt3__14pairIP4CardS2_EC1B8ue170006IS2_S2_LPv0EEEOT_OT0_, symObjAddr: 0x3644, symBinAddr: 0x100007FBC, symSize: 0x3C }
  - { offsetInCU: 0xCC15, offset: 0x166AD, size: 0x8, addend: 0x0, symName: __ZNSt3__14pairIP4CardS2_EC2B8ue170006IS2_S2_LPv0EEEOT_OT0_, symObjAddr: 0x3680, symBinAddr: 0x100007FF8, symSize: 0x34 }
  - { offsetInCU: 0xCC73, offset: 0x1670B, size: 0x8, addend: 0x0, symName: __ZNSt3__118__unwrap_iter_implIP4CardLb1EE8__rewrapB8ue170006ES2_S2_, symObjAddr: 0x36B4, symBinAddr: 0x10000802C, symSize: 0x50 }
  - { offsetInCU: 0xCCA4, offset: 0x1673C, size: 0x8, addend: 0x0, symName: __ZNSt3__111__wrap_iterIP4CardEC1B8ue170006ES2_, symObjAddr: 0x3704, symBinAddr: 0x10000807C, symSize: 0x34 }
  - { offsetInCU: 0xCCDA, offset: 0x16772, size: 0x8, addend: 0x0, symName: __ZNSt3__111__wrap_iterIP4CardEC2B8ue170006ES2_, symObjAddr: 0x3738, symBinAddr: 0x1000080B0, symSize: 0x20 }
  - { offsetInCU: 0xCD11, offset: 0x167A9, size: 0x8, addend: 0x0, symName: __ZNSt3__111__wrap_iterIP4CardEpLB8ue170006El, symObjAddr: 0x3758, symBinAddr: 0x1000080D0, symSize: 0x28 }
  - { offsetInCU: 0xCD44, offset: 0x167DC, size: 0x8, addend: 0x0, symName: __ZNSt3__111__wrap_iterIPK4CardEC2B8ue170006IPS1_EERKNS0_IT_EEPNS_9enable_ifIXsr14is_convertibleIS7_S3_EE5valueEvE4typeE, symObjAddr: 0x3780, symBinAddr: 0x1000080F8, symSize: 0x40 }
  - { offsetInCU: 0xCD8E, offset: 0x16826, size: 0x8, addend: 0x0, symName: __ZNKSt3__111__wrap_iterIP4CardE4baseB8ue170006Ev, symObjAddr: 0x37C0, symBinAddr: 0x100008138, symSize: 0x18 }
  - { offsetInCU: 0xCDB3, offset: 0x1684B, size: 0x8, addend: 0x0, symName: __ZN12SimplePlayerD2Ev, symObjAddr: 0x37D8, symBinAddr: 0x100008150, symSize: 0x54 }
  - { offsetInCU: 0xCDDD, offset: 0x16875, size: 0x8, addend: 0x0, symName: __ZN11HumanPlayerC2ERKNSt3__112basic_stringIcNS0_11char_traitsIcEENS0_9allocatorIcEEEE, symObjAddr: 0x382C, symBinAddr: 0x1000081A4, symSize: 0xB0 }
  - { offsetInCU: 0xCE13, offset: 0x168AB, size: 0x8, addend: 0x0, symName: __ZNK11HumanPlayer8get_nameEv, symObjAddr: 0x38DC, symBinAddr: 0x100008254, symSize: 0x18 }
  - { offsetInCU: 0xCE38, offset: 0x168D0, size: 0x8, addend: 0x0, symName: __ZN11HumanPlayer8add_cardERK4Card, symObjAddr: 0x38F4, symBinAddr: 0x10000826C, symSize: 0x30 }
  - { offsetInCU: 0xCE6A, offset: 0x16902, size: 0x8, addend: 0x0, symName: __ZNK11HumanPlayer10make_trumpERK4CardbiR4Suit, symObjAddr: 0x3924, symBinAddr: 0x10000829C, symSize: 0x128 }
  - { offsetInCU: 0xCED4, offset: 0x1696C, size: 0x8, addend: 0x0, symName: __ZN11HumanPlayer15add_and_discardERK4Card, symObjAddr: 0x3A4C, symBinAddr: 0x1000083C4, symSize: 0x184 }
  - { offsetInCU: 0xCF14, offset: 0x169AC, size: 0x8, addend: 0x0, symName: __ZN11HumanPlayer9lead_cardE4Suit, symObjAddr: 0x3BD0, symBinAddr: 0x100008548, symSize: 0x134 }
  - { offsetInCU: 0xCF70, offset: 0x16A08, size: 0x8, addend: 0x0, symName: __ZN11HumanPlayer9play_cardERK4Card4Suit, symObjAddr: 0x3D04, symBinAddr: 0x10000867C, symSize: 0x138 }
  - { offsetInCU: 0xCFDA, offset: 0x16A72, size: 0x8, addend: 0x0, symName: __ZN11HumanPlayerD1Ev, symObjAddr: 0x3E3C, symBinAddr: 0x1000087B4, symSize: 0x2C }
  - { offsetInCU: 0xD004, offset: 0x16A9C, size: 0x8, addend: 0x0, symName: __ZN11HumanPlayerD0Ev, symObjAddr: 0x3E68, symBinAddr: 0x1000087E0, symSize: 0x30 }
  - { offsetInCU: 0xD02E, offset: 0x16AC6, size: 0x8, addend: 0x0, symName: __ZNK11HumanPlayer10print_handEv, symObjAddr: 0x3E98, symBinAddr: 0x100008810, symSize: 0xE0 }
  - { offsetInCU: 0xD091, offset: 0x16B29, size: 0x8, addend: 0x0, symName: __ZNSt3__16vectorI4CardNS_9allocatorIS1_EEE3endB8ue170006Ev, symObjAddr: 0x523C, symBinAddr: 0x100008960, symSize: 0x30 }
  - { offsetInCU: 0xD0B8, offset: 0x16B50, size: 0x8, addend: 0x0, symName: __ZNSt3__16vectorI4CardNS_9allocatorIS1_EEE8pop_backEv, symObjAddr: 0x526C, symBinAddr: 0x100008990, symSize: 0x2C }
  - { offsetInCU: 0xD0DF, offset: 0x16B77, size: 0x8, addend: 0x0, symName: __ZNKSt3__16__lessIvvEclB8ue170006I4CardS3_EEbRKT_RKT0_, symObjAddr: 0x58F8, symBinAddr: 0x10000901C, symSize: 0x34 }
  - { offsetInCU: 0xD131, offset: 0x16BC9, size: 0x8, addend: 0x0, symName: __ZNSt3__18_IterOpsINS_17_ClassicAlgPolicyEE9iter_swapB8ue170006IRP4CardS6_EEvOT_OT0_, symObjAddr: 0x592C, symBinAddr: 0x100009050, symSize: 0x34 }
  - { offsetInCU: 0xD174, offset: 0x16C0C, size: 0x8, addend: 0x0, symName: __ZNSt3__18_IterOpsINS_17_ClassicAlgPolicyEE9iter_swapB8ue170006IRP4CardS5_EEvOT_OT0_, symObjAddr: 0x5E74, symBinAddr: 0x100009598, symSize: 0x34 }
  - { offsetInCU: 0xD1B7, offset: 0x16C4F, size: 0x8, addend: 0x0, symName: __ZNSt3__18_IterOpsINS_17_ClassicAlgPolicyEE11__iter_moveB8ue170006IRP4CardEENS_9enable_ifIXsr12is_referenceIDTdeclsr3stdE7declvalIRT_EEEEE5valueEDTclsr3stdE4movedeclsr3stdE7declvalIS9_EEEEE4typeEOS8_, symObjAddr: 0x6B18, symBinAddr: 0x10000A23C, symSize: 0x28 }
  - { offsetInCU: 0xD1E3, offset: 0x16C7B, size: 0x8, addend: 0x0, symName: __ZNSt3__18_IterOpsINS_17_ClassicAlgPolicyEE25__validate_iter_referenceB8ue170006IRP4CardEEvv, symObjAddr: 0x6B40, symBinAddr: 0x10000A264, symSize: 0x4 }
  - { offsetInCU: 0xD201, offset: 0x16C99, size: 0x8, addend: 0x0, symName: __ZNSt3__18_IterOpsINS_17_ClassicAlgPolicyEE4nextB8ue170006IP4CardEET_S6_S6_, symObjAddr: 0x6B44, symBinAddr: 0x10000A268, symSize: 0x18 }
  - { offsetInCU: 0xD238, offset: 0x16CD0, size: 0x8, addend: 0x0, symName: __ZNSt3__18_IterOpsINS_17_ClassicAlgPolicyEE9iter_swapB8ue170006IP4CardS5_EEvOT_OT0_, symObjAddr: 0x7A90, symBinAddr: 0x10000B1B4, symSize: 0x34 }
  - { offsetInCU: 0xD294, offset: 0x16D2C, size: 0x8, addend: 0x0, symName: __ZNSt3__14pairIP4CardbEC1B8ue170006IRS2_RbLPv0EEEOT_OT0_, symObjAddr: 0x7AE0, symBinAddr: 0x10000B204, symSize: 0x3C }
  - { offsetInCU: 0xD2F1, offset: 0x16D89, size: 0x8, addend: 0x0, symName: __ZNSt3__14pairIP4CardbEC2B8ue170006IRS2_RbLPv0EEEOT_OT0_, symObjAddr: 0x7B1C, symBinAddr: 0x10000B240, symSize: 0x38 }
  - { offsetInCU: 0xD34F, offset: 0x16DE7, size: 0x8, addend: 0x0, symName: __ZNSt3__118__unwrap_iter_implINS_11__wrap_iterIP4CardEELb1EE8__unwrapB8ue170006ES4_, symObjAddr: 0x7B54, symBinAddr: 0x10000B278, symSize: 0x28 }
  - { offsetInCU: 0xD377, offset: 0x16E0F, size: 0x8, addend: 0x0, symName: __ZNSt3__119__to_address_helperINS_11__wrap_iterIP4CardEEvE6__callB8ue170006ERKS4_, symObjAddr: 0x7BA0, symBinAddr: 0x10000B2C4, symSize: 0x30 }
  - { offsetInCU: 0xD39A, offset: 0x16E32, size: 0x8, addend: 0x0, symName: __ZNSt3__114pointer_traitsINS_11__wrap_iterIP4CardEEE10to_addressB8ue170006ES4_, symObjAddr: 0x7BD0, symBinAddr: 0x10000B2F4, symSize: 0x2C }
  - { offsetInCU: 0xD3BD, offset: 0x16E55, size: 0x8, addend: 0x0, symName: __ZN11HumanPlayerD2Ev, symObjAddr: 0x7BFC, symBinAddr: 0x10000B320, symSize: 0x54 }
  - { offsetInCU: 0xD3E7, offset: 0x16E7F, size: 0x8, addend: 0x0, symName: __ZNKSt3__112basic_stringIcNS_11char_traitsIcEENS_9allocatorIcEEE4dataB8ue170006Ev, symObjAddr: 0x7C50, symBinAddr: 0x10000B374, symSize: 0x28 }
  - { offsetInCU: 0xD40B, offset: 0x16EA3, size: 0x8, addend: 0x0, symName: __ZNKSt3__112basic_stringIcNS_11char_traitsIcEENS_9allocatorIcEEE13__get_pointerB8ue170006Ev, symObjAddr: 0x7CE0, symBinAddr: 0x10000B3B0, symSize: 0x54 }
  - { offsetInCU: 0xD42F, offset: 0x16EC7, size: 0x8, addend: 0x0, symName: __ZNKSt3__112basic_stringIcNS_11char_traitsIcEENS_9allocatorIcEEE18__get_long_pointerB8ue170006Ev, symObjAddr: 0x7D34, symBinAddr: 0x10000B404, symSize: 0x28 }
  - { offsetInCU: 0xD453, offset: 0x16EEB, size: 0x8, addend: 0x0, symName: __ZNKSt3__112basic_stringIcNS_11char_traitsIcEENS_9allocatorIcEEE19__get_short_pointerB8ue170006Ev, symObjAddr: 0x7D5C, symBinAddr: 0x10000B42C, symSize: 0x28 }
  - { offsetInCU: 0xD477, offset: 0x16F0F, size: 0x8, addend: 0x0, symName: __ZNSt3__114pointer_traitsIPKcE10pointer_toB8ue170006ERS1_, symObjAddr: 0x7D84, symBinAddr: 0x10000B454, symSize: 0x14 }
  - { offsetInCU: 0x52, offset: 0x17055, size: 0x8, addend: 0x0, symName: __ZL29register_test_player_get_name, symObjAddr: 0x70416, symBinAddr: 0x100020000, symSize: 0x0 }
  - { offsetInCU: 0x9834, offset: 0x20837, size: 0x8, addend: 0x0, symName: __ZNSt3__1ltB8ue170006IcNS_11char_traitsIcEENS_9allocatorIcEEEEbRKNS_12basic_stringIT_T0_T1_EESB_, symObjAddr: 0x54DC, symBinAddr: 0x100010944, symSize: 0x38 }
  - { offsetInCU: 0x988C, offset: 0x2088F, size: 0x8, addend: 0x0, symName: __ZNSt3__17launderB8ue170006IKNS_4pairIKNS_12basic_stringIcNS_11char_traitsIcEENS_9allocatorIcEEEEN19unit_test_framework8TestCaseEEEEEPT_SE_, symObjAddr: 0x5A7C, symBinAddr: 0x100010C10, symSize: 0x24 }
  - { offsetInCU: 0x98C3, offset: 0x208C6, size: 0x8, addend: 0x0, symName: __ZNSt3__19__launderB8ue170006IKNS_4pairIKNS_12basic_stringIcNS_11char_traitsIcEENS_9allocatorIcEEEEN19unit_test_framework8TestCaseEEEEEPT_SE_, symObjAddr: 0x5AA0, symBinAddr: 0x100010C34, symSize: 0x14 }
  - { offsetInCU: 0x9919, offset: 0x2091C, size: 0x8, addend: 0x0, symName: __ZNSt3__17launderB8ue170006INS_4pairIKNS_12basic_stringIcNS_11char_traitsIcEENS_9allocatorIcEEEEN19unit_test_framework8TestCaseEEEEEPT_SD_, symObjAddr: 0x61F0, symBinAddr: 0x100011208, symSize: 0x24 }
  - { offsetInCU: 0x9950, offset: 0x20953, size: 0x8, addend: 0x0, symName: __ZNSt3__19__launderB8ue170006INS_4pairIKNS_12basic_stringIcNS_11char_traitsIcEENS_9allocatorIcEEEEN19unit_test_framework8TestCaseEEEEEPT_SD_, symObjAddr: 0x6214, symBinAddr: 0x10001122C, symSize: 0x14 }
  - { offsetInCU: 0x9988, offset: 0x2098B, size: 0x8, addend: 0x0, symName: __ZNSt3__127__tree_balance_after_insertB8ue170006IPNS_16__tree_node_baseIPvEEEEvT_S5_, symObjAddr: 0x62B0, symBinAddr: 0x1000112C8, symSize: 0x32C }
  - { offsetInCU: 0x9A05, offset: 0x20A08, size: 0x8, addend: 0x0, symName: __ZNSt3__120__tree_is_left_childB8ue170006IPNS_16__tree_node_baseIPvEEEEbT_, symObjAddr: 0x661C, symBinAddr: 0x100011634, symSize: 0x2C }
  - { offsetInCU: 0x9A3A, offset: 0x20A3D, size: 0x8, addend: 0x0, symName: __ZNSt3__118__tree_left_rotateB8ue170006IPNS_16__tree_node_baseIPvEEEEvT_, symObjAddr: 0x6648, symBinAddr: 0x100011660, symSize: 0xD8 }
  - { offsetInCU: 0x9A7D, offset: 0x20A80, size: 0x8, addend: 0x0, symName: __ZNSt3__119__tree_right_rotateB8ue170006IPNS_16__tree_node_baseIPvEEEEvT_, symObjAddr: 0x6720, symBinAddr: 0x100011738, symSize: 0xCC }
  - { offsetInCU: 0x9E4A, offset: 0x20E4D, size: 0x8, addend: 0x0, symName: __ZNSt3__1eqB8ue170006IcNS_11char_traitsIcEENS_9allocatorIcEEEEbPKT_RKNS_12basic_stringIS5_T0_T1_EE, symObjAddr: 0x74A8, symBinAddr: 0x100012208, symSize: 0xAC }
  - { offsetInCU: 0x9EB1, offset: 0x20EB4, size: 0x8, addend: 0x0, symName: __ZNSt3__15beginB8ue170006IKcLm6EEEPT_RAT0__S2_, symObjAddr: 0x7904, symBinAddr: 0x100012604, symSize: 0x14 }
  - { offsetInCU: 0x9EF0, offset: 0x20EF3, size: 0x8, addend: 0x0, symName: __ZNSt3__13endB8ue170006IKcLm6EEEPT_RAT0__S2_, symObjAddr: 0x7918, symBinAddr: 0x100012618, symSize: 0x18 }
  - { offsetInCU: 0x9F2F, offset: 0x20F32, size: 0x8, addend: 0x0, symName: __ZNSt3__1lsB8ue170006INS_11char_traitsIcEEEERNS_13basic_ostreamIcT_EES6_c, symObjAddr: 0x799C, symBinAddr: 0x10001269C, symSize: 0x34 }
  - { offsetInCU: 0x9F75, offset: 0x20F78, size: 0x8, addend: 0x0, symName: __ZNSt3__15beginB8ue170006IKcLm4EEEPT_RAT0__S2_, symObjAddr: 0x8724, symBinAddr: 0x100012AC0, symSize: 0x14 }
  - { offsetInCU: 0x9FB4, offset: 0x20FB7, size: 0x8, addend: 0x0, symName: __ZNSt3__13endB8ue170006IKcLm4EEEPT_RAT0__S2_, symObjAddr: 0x8738, symBinAddr: 0x100012AD4, symSize: 0x18 }
  - { offsetInCU: 0x9FF3, offset: 0x20FF6, size: 0x8, addend: 0x0, symName: __ZNSt3__15beginB8ue170006IKcLm1EEEPT_RAT0__S2_, symObjAddr: 0x8B08, symBinAddr: 0x100012EA4, symSize: 0x14 }
  - { offsetInCU: 0xA032, offset: 0x21035, size: 0x8, addend: 0x0, symName: __ZNSt3__13endB8ue170006IKcLm1EEEPT_RAT0__S2_, symObjAddr: 0x8B1C, symBinAddr: 0x100012EB8, symSize: 0x18 }
  - { offsetInCU: 0xA071, offset: 0x21074, size: 0x8, addend: 0x0, symName: __ZNSt3__14endlB8ue170006IcNS_11char_traitsIcEEEERNS_13basic_ostreamIT_T0_EES7_, symObjAddr: 0x9708, symBinAddr: 0x100013AA4, symSize: 0x58 }
  - { offsetInCU: 0xA0B1, offset: 0x210B4, size: 0x8, addend: 0x0, symName: __ZNSt3__1neB8ue170006IPNS_12basic_stringIcNS_11char_traitsIcEENS_9allocatorIcEEEEEEbRKNS_11__wrap_iterIT_EESC_, symObjAddr: 0x9FE8, symBinAddr: 0x100014384, symSize: 0x34 }
  - { offsetInCU: 0xA0F4, offset: 0x210F7, size: 0x8, addend: 0x0, symName: __ZNSt3__1eqB8ue170006ERKNS_14__map_iteratorINS_15__tree_iteratorINS_12__value_typeINS_12basic_stringIcNS_11char_traitsIcEENS_9allocatorIcEEEEN19unit_test_framework8TestCaseEEEPNS_11__tree_nodeISB_PvEElEEEESJ_, symObjAddr: 0xA034, symBinAddr: 0x1000143D0, symSize: 0x30 }
  - { offsetInCU: 0xA131, offset: 0x21134, size: 0x8, addend: 0x0, symName: __ZNSt3__13endB8ue170006INS_3mapINS_12basic_stringIcNS_11char_traitsIcEENS_9allocatorIcEEEEN19unit_test_framework8TestCaseENS_4lessIS7_EENS5_INS_4pairIKS7_S9_EEEEEEEEDTcldtfp_3endEERT_, symObjAddr: 0xA0A4, symBinAddr: 0x100014440, symSize: 0x2C }
  - { offsetInCU: 0xA166, offset: 0x21169, size: 0x8, addend: 0x0, symName: __ZNSt3__1plB8ue170006IcNS_11char_traitsIcEENS_9allocatorIcEEEENS_12basic_stringIT_T0_T1_EEOS9_PKS6_, symObjAddr: 0xA0D0, symBinAddr: 0x10001446C, symSize: 0x40 }
  - { offsetInCU: 0xA1BE, offset: 0x211C1, size: 0x8, addend: 0x0, symName: __ZNSt3__18count_ifB8ue170006INS_14__map_iteratorINS_15__tree_iteratorINS_12__value_typeINS_12basic_stringIcNS_11char_traitsIcEENS_9allocatorIcEEEEN19unit_test_framework8TestCaseEEEPNS_11__tree_nodeISC_PvEElEEEEZNSA_9TestSuite9run_testsEiPPcEUlNS_4pairIS9_SB_EEE_EENS_15iterator_traitsIT_E15difference_typeESQ_SQ_T0_, symObjAddr: 0xA670, symBinAddr: 0x100014A0C, symSize: 0xC4 }
  - { offsetInCU: 0xA226, offset: 0x21229, size: 0x8, addend: 0x0, symName: __ZNSt3__18count_ifB8ue170006INS_14__map_iteratorINS_15__tree_iteratorINS_12__value_typeINS_12basic_stringIcNS_11char_traitsIcEENS_9allocatorIcEEEEN19unit_test_framework8TestCaseEEEPNS_11__tree_nodeISC_PvEElEEEEZNSA_9TestSuite9run_testsEiPPcEUlNS_4pairIS9_SB_EEE0_EENS_15iterator_traitsIT_E15difference_typeESQ_SQ_T0_, symObjAddr: 0xA7A4, symBinAddr: 0x100014B40, symSize: 0xC4 }
  - { offsetInCU: 0xA28E, offset: 0x21291, size: 0x8, addend: 0x0, symName: __ZNSt3__15flushB8ue170006IcNS_11char_traitsIcEEEERNS_13basic_ostreamIT_T0_EES7_, symObjAddr: 0xAAC4, symBinAddr: 0x100014E60, symSize: 0x28 }
  - { offsetInCU: 0xA2CE, offset: 0x212D1, size: 0x8, addend: 0x0, symName: __ZNSt3__19transformB8ue170006INS_14__map_iteratorINS_15__tree_iteratorINS_12__value_typeINS_12basic_stringIcNS_11char_traitsIcEENS_9allocatorIcEEEEN19unit_test_framework8TestCaseEEEPNS_11__tree_nodeISC_PvEElEEEENS_20back_insert_iteratorINS_6vectorIS9_NS7_IS9_EEEEEEZNSA_9TestSuite21get_test_names_to_runEiPPcEUlRKNS_4pairIS9_SB_EEE_EET0_T_SX_SW_T1_, symObjAddr: 0xABFC, symBinAddr: 0x100014F98, symSize: 0x104 }
  - { offsetInCU: 0xA33F, offset: 0x21342, size: 0x8, addend: 0x0, symName: __ZNSt3__15beginB8ue170006INS_3mapINS_12basic_stringIcNS_11char_traitsIcEENS_9allocatorIcEEEEN19unit_test_framework8TestCaseENS_4lessIS7_EENS5_INS_4pairIKS7_S9_EEEEEEEEDTcldtfp_5beginEERT_, symObjAddr: 0xAD00, symBinAddr: 0x10001509C, symSize: 0x2C }
  - { offsetInCU: 0xA374, offset: 0x21377, size: 0x8, addend: 0x0, symName: __ZNSt3__113back_inserterB8ue170006INS_6vectorINS_12basic_stringIcNS_11char_traitsIcEENS_9allocatorIcEEEENS5_IS7_EEEEEENS_20back_insert_iteratorIT_EERSB_, symObjAddr: 0xAD2C, symBinAddr: 0x1000150C8, symSize: 0x2C }
  - { offsetInCU: 0xA3A9, offset: 0x213AC, size: 0x8, addend: 0x0, symName: __ZNSt3__1neB8ue170006ERKNS_14__map_iteratorINS_15__tree_iteratorINS_12__value_typeINS_12basic_stringIcNS_11char_traitsIcEENS_9allocatorIcEEEEN19unit_test_framework8TestCaseEEEPNS_11__tree_nodeISB_PvEElEEEESJ_, symObjAddr: 0xAD58, symBinAddr: 0x1000150F4, symSize: 0x30 }
  - { offsetInCU: 0xA3E6, offset: 0x213E9, size: 0x8, addend: 0x0, symName: __ZNSt3__1neB8ue170006ERKNS_15__tree_iteratorINS_12__value_typeINS_12basic_stringIcNS_11char_traitsIcEENS_9allocatorIcEEEEN19unit_test_framework8TestCaseEEEPNS_11__tree_nodeISA_PvEElEESH_, symObjAddr: 0xADDC, symBinAddr: 0x100015178, symSize: 0x34 }
  - { offsetInCU: 0xA423, offset: 0x21426, size: 0x8, addend: 0x0, symName: __ZNSt3__1eqB8ue170006ERKNS_15__tree_iteratorINS_12__value_typeINS_12basic_stringIcNS_11char_traitsIcEENS_9allocatorIcEEEEN19unit_test_framework8TestCaseEEEPNS_11__tree_nodeISA_PvEElEESH_, symObjAddr: 0xAE10, symBinAddr: 0x1000151AC, symSize: 0x30 }
  - { offsetInCU: 0xA494, offset: 0x21497, size: 0x8, addend: 0x0, symName: __ZNSt3__116__tree_next_iterB8ue170006IPNS_15__tree_end_nodeIPNS_16__tree_node_baseIPvEEEES5_EET_T0_, symObjAddr: 0xAED0, symBinAddr: 0x10001526C, symSize: 0x80 }
  - { offsetInCU: 0xA4D2, offset: 0x214D5, size: 0x8, addend: 0x0, symName: __ZNSt3__110__tree_minB8ue170006IPNS_16__tree_node_baseIPvEEEET_S5_, symObjAddr: 0xAF50, symBinAddr: 0x1000152EC, symSize: 0x40 }
  - { offsetInCU: 0xA507, offset: 0x2150A, size: 0x8, addend: 0x0, symName: __ZNSt3__112__to_addressB8ue170006INS_12basic_stringIcNS_11char_traitsIcEENS_9allocatorIcEEEEEEPT_S8_, symObjAddr: 0xB2C0, symBinAddr: 0x10001565C, symSize: 0x14 }
  - { offsetInCU: 0xA53C, offset: 0x2153F, size: 0x8, addend: 0x0, symName: __ZNSt3__119__allocate_at_leastB8ue170006INS_9allocatorINS_12basic_stringIcNS_11char_traitsIcEENS1_IcEEEEEEEENS_19__allocation_resultINS_16allocator_traitsIT_E7pointerEEERSA_m, symObjAddr: 0xBA5C, symBinAddr: 0x100015C78, symSize: 0x40 }
  - { offsetInCU: 0xA57F, offset: 0x21582, size: 0x8, addend: 0x0, symName: __ZNSt3__142__uninitialized_allocator_move_if_noexceptB8ue170006INS_9allocatorINS_12basic_stringIcNS_11char_traitsIcEENS1_IcEEEEEENS_16reverse_iteratorIPS6_EESA_SA_EET2_RT_T0_T1_SB_, symObjAddr: 0xBCE8, symBinAddr: 0x100015F04, symSize: 0x12C }
  - { offsetInCU: 0xA61F, offset: 0x21622, size: 0x8, addend: 0x0, symName: __ZNSt3__14swapB8ue170006IPNS_12basic_stringIcNS_11char_traitsIcEENS_9allocatorIcEEEEEENS_9enable_ifIXaasr21is_move_constructibleIT_EE5valuesr18is_move_assignableIS9_EE5valueEvE4typeERS9_SC_, symObjAddr: 0xBE60, symBinAddr: 0x10001607C, symSize: 0x3C }
  - { offsetInCU: 0xA670, offset: 0x21673, size: 0x8, addend: 0x0, symName: __ZNSt3__122__make_exception_guardB8ue170006INS_29_AllocatorDestroyRangeReverseINS_9allocatorINS_12basic_stringIcNS_11char_traitsIcEENS2_IcEEEEEENS_16reverse_iteratorIPS7_EEEEEENS_28__exception_guard_exceptionsIT_EESE_, symObjAddr: 0xBFAC, symBinAddr: 0x1000161C8, symSize: 0x4C }
  - { offsetInCU: 0xA6A6, offset: 0x216A9, size: 0x8, addend: 0x0, symName: __ZNSt3__1neB8ue170006IPNS_12basic_stringIcNS_11char_traitsIcEENS_9allocatorIcEEEES7_EEbRKNS_16reverse_iteratorIT_EERKNS8_IT0_EE, symObjAddr: 0xC03C, symBinAddr: 0x100016258, symSize: 0x48 }
  - { offsetInCU: 0xA6F2, offset: 0x216F5, size: 0x8, addend: 0x0, symName: __ZNSt3__112__to_addressB8ue170006INS_16reverse_iteratorIPNS_12basic_stringIcNS_11char_traitsIcEENS_9allocatorIcEEEEEEvEEu7__decayIDTclsr19__to_address_helperIT_EE6__callclsr3stdE7declvalIRKSA_EEEEESC_, symObjAddr: 0xC084, symBinAddr: 0x1000162A0, symSize: 0x24 }
  - { offsetInCU: 0xA752, offset: 0x21755, size: 0x8, addend: 0x0, symName: __ZNSt3__119__allocator_destroyB8ue170006INS_9allocatorINS_12basic_stringIcNS_11char_traitsIcEENS1_IcEEEEEENS_16reverse_iteratorINS8_IPS6_EEEESB_EEvRT_T0_T1_, symObjAddr: 0xC334, symBinAddr: 0x100016550, symSize: 0x70 }
  - { offsetInCU: 0xA7B8, offset: 0x217BB, size: 0x8, addend: 0x0, symName: __ZNSt3__1neB8ue170006INS_16reverse_iteratorIPNS_12basic_stringIcNS_11char_traitsIcEENS_9allocatorIcEEEEEES9_EEbRKNS1_IT_EERKNS1_IT0_EE, symObjAddr: 0xC3E0, symBinAddr: 0x1000165FC, symSize: 0x60 }
  - { offsetInCU: 0xA804, offset: 0x21807, size: 0x8, addend: 0x0, symName: __ZNSt3__112__to_addressB8ue170006INS_16reverse_iteratorINS1_IPNS_12basic_stringIcNS_11char_traitsIcEENS_9allocatorIcEEEEEEEEvEEu7__decayIDTclsr19__to_address_helperIT_EE6__callclsr3stdE7declvalIRKSB_EEEEESD_, symObjAddr: 0xC46C, symBinAddr: 0x100016688, symSize: 0x24 }
  - { offsetInCU: 0xA940, offset: 0x21943, size: 0x8, addend: 0x0, symName: __ZNSt3__1eqB8ue170006IPNS_12basic_stringIcNS_11char_traitsIcEENS_9allocatorIcEEEEEEbRKNS_11__wrap_iterIT_EESC_, symObjAddr: 0xD054, symBinAddr: 0x100017270, symSize: 0x48 }
  - { offsetInCU: 0xA983, offset: 0x21986, size: 0x8, addend: 0x0, symName: __ZNSt3__120__throw_out_of_rangeB8ue170006EPKc, symObjAddr: 0xD300, symBinAddr: 0x10001751C, symSize: 0x64 }
  - { offsetInCU: 0xAE7A, offset: 0x21E7D, size: 0x8, addend: 0x0, symName: __ZL33register_test_player_with_no_name, symObjAddr: 0x70417, symBinAddr: 0x100020001, symSize: 0x0 }
  - { offsetInCU: 0xAE93, offset: 0x21E96, size: 0x8, addend: 0x0, symName: __ZL29register_test_player_add_card, symObjAddr: 0x70418, symBinAddr: 0x100020002, symSize: 0x0 }
  - { offsetInCU: 0xAEAC, offset: 0x21EAF, size: 0x8, addend: 0x0, symName: __ZL32register_player_add_card_default, symObjAddr: 0x70419, symBinAddr: 0x100020003, symSize: 0x0 }
  - { offsetInCU: 0xAEC5, offset: 0x21EC8, size: 0x8, addend: 0x0, symName: __ZL49register_test_simple_make_trump_exactly_two_trump, symObjAddr: 0x7041A, symBinAddr: 0x100020004, symSize: 0x0 }
  - { offsetInCU: 0xAEDE, offset: 0x21EE1, size: 0x8, addend: 0x0, symName: __ZL46register_test_simple_make_trump_one_trump_card, symObjAddr: 0x7041B, symBinAddr: 0x100020005, symSize: 0x0 }
  - { offsetInCU: 0xAEF7, offset: 0x21EFA, size: 0x8, addend: 0x0, symName: __ZL47register_test_simple_make_trump_with_left_bower, symObjAddr: 0x7041C, symBinAddr: 0x100020006, symSize: 0x0 }
  - { offsetInCU: 0xAF10, offset: 0x21F13, size: 0x8, addend: 0x0, symName: __ZL59register_test_simple_make_trump_round2_one_same_color_trump, symObjAddr: 0x7041D, symBinAddr: 0x100020007, symSize: 0x0 }
  - { offsetInCU: 0xAF29, offset: 0x21F2C, size: 0x8, addend: 0x0, symName: __ZL58register_test_simple_make_trump_round2_no_same_color_trump, symObjAddr: 0x7041E, symBinAddr: 0x100020008, symSize: 0x0 }
  - { offsetInCU: 0xAF42, offset: 0x21F45, size: 0x8, addend: 0x0, symName: __ZL44register_test_simple_make_trump_force_dealer, symObjAddr: 0x7041F, symBinAddr: 0x100020009, symSize: 0x0 }
  - { offsetInCU: 0xAF5B, offset: 0x21F5E, size: 0x8, addend: 0x0, symName: __ZL36register_test_simple_add_and_discard, symObjAddr: 0x70420, symBinAddr: 0x10002000A, symSize: 0x0 }
  - { offsetInCU: 0xAF74, offset: 0x21F77, size: 0x8, addend: 0x0, symName: __ZL40register_test_simple_add_discard_default, symObjAddr: 0x70421, symBinAddr: 0x10002000B, symSize: 0x0 }
  - { offsetInCU: 0xAF8D, offset: 0x21F90, size: 0x8, addend: 0x0, symName: __ZL30register_test_simple_lead_card, symObjAddr: 0x70422, symBinAddr: 0x10002000C, symSize: 0x0 }
  - { offsetInCU: 0xAFA6, offset: 0x21FA9, size: 0x8, addend: 0x0, symName: __ZL38register_test_simple_lead_card_default, symObjAddr: 0x70423, symBinAddr: 0x10002000D, symSize: 0x0 }
  - { offsetInCU: 0xAFBF, offset: 0x21FC2, size: 0x8, addend: 0x0, symName: __ZL30register_test_simple_play_card, symObjAddr: 0x70424, symBinAddr: 0x10002000E, symSize: 0x0 }
  - { offsetInCU: 0xAFD8, offset: 0x21FDB, size: 0x8, addend: 0x0, symName: __ZL38register_test_simple_play_card_default, symObjAddr: 0x70425, symBinAddr: 0x10002000F, symSize: 0x0 }
  - { offsetInCU: 0xAFF1, offset: 0x21FF4, size: 0x8, addend: 0x0, symName: __ZL48register_test_simple_add_and_discard_lowest_card, symObjAddr: 0x70426, symBinAddr: 0x100020010, symSize: 0x0 }
  - { offsetInCU: 0xB00A, offset: 0x2200D, size: 0x8, addend: 0x0, symName: __ZL50register_test_simple_add_and_discard_only_one_card, symObjAddr: 0x70427, symBinAddr: 0x100020011, symSize: 0x0 }
  - { offsetInCU: 0xB023, offset: 0x22026, size: 0x8, addend: 0x0, symName: __ZL39register_test_simple_lead_card_no_trump, symObjAddr: 0x70428, symBinAddr: 0x100020012, symSize: 0x0 }
  - { offsetInCU: 0xB03C, offset: 0x2203F, size: 0x8, addend: 0x0, symName: __ZL40register_test_simple_lead_card_all_trump, symObjAddr: 0x70429, symBinAddr: 0x100020013, symSize: 0x0 }
  - { offsetInCU: 0xB055, offset: 0x22058, size: 0x8, addend: 0x0, symName: __ZL41register_test_simple_lead_card_tiebreaker, symObjAddr: 0x7042A, symBinAddr: 0x100020014, symSize: 0x0 }
  - { offsetInCU: 0xB06E, offset: 0x22071, size: 0x8, addend: 0x0, symName: __ZL42register_test_simple_play_card_follow_suit, symObjAddr: 0x7042B, symBinAddr: 0x100020015, symSize: 0x0 }
  - { offsetInCU: 0xB087, offset: 0x2208A, size: 0x8, addend: 0x0, symName: __ZL39register_test_simple_play_card_no_match, symObjAddr: 0x7042C, symBinAddr: 0x100020016, symSize: 0x0 }
  - { offsetInCU: 0xB0A2, offset: 0x220A5, size: 0x8, addend: 0x0, symName: __ZL46register_test_simple_play_card_trump_edge_case, symObjAddr: 0x7042D, symBinAddr: 0x100020017, symSize: 0x0 }
  - { offsetInCU: 0xB0BD, offset: 0x220C0, size: 0x8, addend: 0x0, symName: __ZL55register_test_simple_make_trump_zero_trump_cards_round1, symObjAddr: 0x7042E, symBinAddr: 0x100020018, symSize: 0x0 }
  - { offsetInCU: 0xB0D8, offset: 0x220DB, size: 0x8, addend: 0x0, symName: __ZL53register_test_simple_make_trump_one_trump_card_round1, symObjAddr: 0x7042F, symBinAddr: 0x100020019, symSize: 0x0 }
  - { offsetInCU: 0xB0F3, offset: 0x220F6, size: 0x8, addend: 0x0, symName: __ZL56register_test_simple_make_trump_exactly_two_trump_round1, symObjAddr: 0x70430, symBinAddr: 0x10002001A, symSize: 0x0 }
  - { offsetInCU: 0xB10E, offset: 0x22111, size: 0x8, addend: 0x0, symName: __ZL58register_test_simple_make_trump_more_than_two_trump_round1, symObjAddr: 0x70431, symBinAddr: 0x10002001B, symSize: 0x0 }
  - { offsetInCU: 0xB129, offset: 0x2212C, size: 0x8, addend: 0x0, symName: __ZL53register_test_simple_make_trump_one_trump_card_round2, symObjAddr: 0x70432, symBinAddr: 0x10002001C, symSize: 0x0 }
  - { offsetInCU: 0xB144, offset: 0x22147, size: 0x8, addend: 0x0, symName: __ZL53register_test_simple_make_trump_no_trump_cards_round2, symObjAddr: 0x70433, symBinAddr: 0x10002001D, symSize: 0x0 }
  - { offsetInCU: 0xB15F, offset: 0x22162, size: 0x8, addend: 0x0, symName: __ZL64register_test_simple_make_trump_force_dealer_with_no_trump_cards, symObjAddr: 0x70434, symBinAddr: 0x10002001E, symSize: 0x0 }
  - { offsetInCU: 0xB17A, offset: 0x2217D, size: 0x8, addend: 0x0, symName: __ZL66register_test_simple_make_trump_force_dealer_with_some_trump_cards, symObjAddr: 0x70435, symBinAddr: 0x10002001F, symSize: 0x0 }
  - { offsetInCU: 0xB195, offset: 0x22198, size: 0x8, addend: 0x0, symName: __ZL55register_test_simple_make_trump_with_right_bower_round1, symObjAddr: 0x70436, symBinAddr: 0x100020020, symSize: 0x0 }
  - { offsetInCU: 0xB1B0, offset: 0x221B3, size: 0x8, addend: 0x0, symName: __ZL54register_test_simple_make_trump_with_left_bower_round1, symObjAddr: 0x70437, symBinAddr: 0x100020021, symSize: 0x0 }
  - { offsetInCU: 0xB1CB, offset: 0x221CE, size: 0x8, addend: 0x0, symName: __ZL53register_test_simple_play_card_follow_suit_one_option, symObjAddr: 0x70438, symBinAddr: 0x100020022, symSize: 0x0 }
  - { offsetInCU: 0xB1E6, offset: 0x221E9, size: 0x8, addend: 0x0, symName: __ZL59register_test_simple_play_card_follow_suit_multiple_options, symObjAddr: 0x70439, symBinAddr: 0x100020023, symSize: 0x0 }
  - { offsetInCU: 0xB201, offset: 0x22204, size: 0x8, addend: 0x0, symName: __ZL64register_test_simple_play_card_no_led_suit_play_lowest_non_trump, symObjAddr: 0x7043A, symBinAddr: 0x100020024, symSize: 0x0 }
  - { offsetInCU: 0xB21C, offset: 0x2221F, size: 0x8, addend: 0x0, symName: __ZL62register_test_simple_play_card_no_led_suit_but_trump_available, symObjAddr: 0x7043B, symBinAddr: 0x100020025, symSize: 0x0 }
  - { offsetInCU: 0xB237, offset: 0x2223A, size: 0x8, addend: 0x0, symName: __ZL40register_test_simple_play_card_all_trump, symObjAddr: 0x7043C, symBinAddr: 0x100020026, symSize: 0x0 }
  - { offsetInCU: 0xB252, offset: 0x22255, size: 0x8, addend: 0x0, symName: __ZL49register_test_simple_play_card_only_one_card_left, symObjAddr: 0x7043D, symBinAddr: 0x100020027, symSize: 0x0 }
  - { offsetInCU: 0xB26D, offset: 0x22270, size: 0x8, addend: 0x0, symName: __ZL9destroyer, symObjAddr: 0x7043E, symBinAddr: 0x100020028, symSize: 0x0 }
  - { offsetInCU: 0xB286, offset: 0x22289, size: 0x8, addend: 0x0, symName: __ZN19unit_test_framework9TestSuite10incompleteE, symObjAddr: 0x70440, symBinAddr: 0x100020030, symSize: 0x0 }
  - { offsetInCU: 0xBA75, offset: 0x22A78, size: 0x8, addend: 0x0, symName: __ZN19unit_test_framework9TestSuite8instanceE, symObjAddr: 0x70448, symBinAddr: 0x100020038, symSize: 0x0 }
  - { offsetInCU: 0xBAA7, offset: 0x22AAA, size: 0x8, addend: 0x0, symName: __ZNSt3__16vectorINS_12basic_stringIcNS_11char_traitsIcEENS_9allocatorIcEEEENS4_IS6_EEE26__swap_out_circular_bufferERNS_14__split_bufferIS6_RS7_EE, symObjAddr: 0xB4CC, symBinAddr: 0x100015868, symSize: 0x110 }
  - { offsetInCU: 0xD8E2, offset: 0x248E5, size: 0x8, addend: 0x0, symName: __ZNSt3__112basic_stringIcNS_11char_traitsIcEENS_9allocatorIcEEEC1B8ue170006ILi0EEEPKc, symObjAddr: 0x0, symBinAddr: 0x10000B468, symSize: 0x34 }
  - { offsetInCU: 0xD920, offset: 0x24923, size: 0x8, addend: 0x0, symName: __ZL20test_player_get_namev, symObjAddr: 0x34, symBinAddr: 0x10000B49C, symSize: 0x1D8 }
  - { offsetInCU: 0xD958, offset: 0x2495B, size: 0x8, addend: 0x0, symName: __ZN19unit_test_framework14TestRegistererC1ERKNSt3__112basic_stringIcNS1_11char_traitsIcEENS1_9allocatorIcEEEEPFvvE, symObjAddr: 0x20C, symBinAddr: 0x10000B674, symSize: 0x3C }
  - { offsetInCU: 0xD99E, offset: 0x249A1, size: 0x8, addend: 0x0, symName: __ZL24test_player_with_no_namev, symObjAddr: 0x248, symBinAddr: 0x10000B6B0, symSize: 0xFC }
  - { offsetInCU: 0xD9C7, offset: 0x249CA, size: 0x8, addend: 0x0, symName: __ZL20test_player_add_cardv, symObjAddr: 0x344, symBinAddr: 0x10000B7AC, symSize: 0xF8 }
  - { offsetInCU: 0xD9FE, offset: 0x24A01, size: 0x8, addend: 0x0, symName: __ZL23player_add_card_defaultv, symObjAddr: 0x43C, symBinAddr: 0x10000B8A4, symSize: 0xF0 }
  - { offsetInCU: 0xDA35, offset: 0x24A38, size: 0x8, addend: 0x0, symName: __ZL40test_simple_make_trump_exactly_two_trumpv, symObjAddr: 0x52C, symBinAddr: 0x10000B994, symSize: 0x1A4 }
  - { offsetInCU: 0xDA7C, offset: 0x24A7F, size: 0x8, addend: 0x0, symName: __ZL37test_simple_make_trump_one_trump_cardv, symObjAddr: 0x6D0, symBinAddr: 0x10000BB38, symSize: 0x150 }
  - { offsetInCU: 0xDAC3, offset: 0x24AC6, size: 0x8, addend: 0x0, symName: __ZL38test_simple_make_trump_with_left_bowerv, symObjAddr: 0x820, symBinAddr: 0x10000BC88, symSize: 0x1A0 }
  - { offsetInCU: 0xDB0A, offset: 0x24B0D, size: 0x8, addend: 0x0, symName: __ZL50test_simple_make_trump_round2_one_same_color_trumpv, symObjAddr: 0x9C0, symBinAddr: 0x10000BE28, symSize: 0x174 }
  - { offsetInCU: 0xDB51, offset: 0x24B54, size: 0x8, addend: 0x0, symName: __ZL49test_simple_make_trump_round2_no_same_color_trumpv, symObjAddr: 0xB34, symBinAddr: 0x10000BF9C, symSize: 0x180 }
  - { offsetInCU: 0xDB98, offset: 0x24B9B, size: 0x8, addend: 0x0, symName: __ZL35test_simple_make_trump_force_dealerv, symObjAddr: 0xCB4, symBinAddr: 0x10000C11C, symSize: 0x140 }
  - { offsetInCU: 0xDBDD, offset: 0x24BE0, size: 0x8, addend: 0x0, symName: __ZL27test_simple_add_and_discardv, symObjAddr: 0xDF4, symBinAddr: 0x10000C25C, symSize: 0x160 }
  - { offsetInCU: 0xDC06, offset: 0x24C09, size: 0x8, addend: 0x0, symName: __ZL31test_simple_add_discard_defaultv, symObjAddr: 0xF54, symBinAddr: 0x10000C3BC, symSize: 0x104 }
  - { offsetInCU: 0xDC3D, offset: 0x24C40, size: 0x8, addend: 0x0, symName: __ZL21test_simple_lead_cardv, symObjAddr: 0x1058, symBinAddr: 0x10000C4C0, symSize: 0x184 }
  - { offsetInCU: 0xDC75, offset: 0x24C78, size: 0x8, addend: 0x0, symName: __ZL29test_simple_lead_card_defaultv, symObjAddr: 0x11DC, symBinAddr: 0x10000C644, symSize: 0x110 }
  - { offsetInCU: 0xDCAC, offset: 0x24CAF, size: 0x8, addend: 0x0, symName: __ZL21test_simple_play_cardv, symObjAddr: 0x12EC, symBinAddr: 0x10000C754, symSize: 0x1A4 }
  - { offsetInCU: 0xDCE4, offset: 0x24CE7, size: 0x8, addend: 0x0, symName: __ZL29test_simple_play_card_defaultv, symObjAddr: 0x1490, symBinAddr: 0x10000C8F8, symSize: 0x17C }
  - { offsetInCU: 0xDD1C, offset: 0x24D1F, size: 0x8, addend: 0x0, symName: __ZL39test_simple_add_and_discard_lowest_cardv, symObjAddr: 0x160C, symBinAddr: 0x10000CA74, symSize: 0x160 }
  - { offsetInCU: 0xDD45, offset: 0x24D48, size: 0x8, addend: 0x0, symName: __ZL41test_simple_add_and_discard_only_one_cardv, symObjAddr: 0x176C, symBinAddr: 0x10000CBD4, symSize: 0x130 }
  - { offsetInCU: 0xDD6E, offset: 0x24D71, size: 0x8, addend: 0x0, symName: __ZL30test_simple_lead_card_no_trumpv, symObjAddr: 0x189C, symBinAddr: 0x10000CD04, symSize: 0x184 }
  - { offsetInCU: 0xDDA6, offset: 0x24DA9, size: 0x8, addend: 0x0, symName: __ZL31test_simple_lead_card_all_trumpv, symObjAddr: 0x1A20, symBinAddr: 0x10000CE88, symSize: 0x184 }
  - { offsetInCU: 0xDDDE, offset: 0x24DE1, size: 0x8, addend: 0x0, symName: __ZL32test_simple_lead_card_tiebreakerv, symObjAddr: 0x1BA4, symBinAddr: 0x10000D00C, symSize: 0x1C8 }
  - { offsetInCU: 0xDE16, offset: 0x24E19, size: 0x8, addend: 0x0, symName: __ZL33test_simple_play_card_follow_suitv, symObjAddr: 0x1D6C, symBinAddr: 0x10000D1D4, symSize: 0x1A4 }
  - { offsetInCU: 0xDE4E, offset: 0x24E51, size: 0x8, addend: 0x0, symName: __ZL30test_simple_play_card_no_matchv, symObjAddr: 0x1F10, symBinAddr: 0x10000D378, symSize: 0x1A8 }
  - { offsetInCU: 0xDE88, offset: 0x24E8B, size: 0x8, addend: 0x0, symName: __ZL37test_simple_play_card_trump_edge_casev, symObjAddr: 0x20B8, symBinAddr: 0x10000D520, symSize: 0x1A4 }
  - { offsetInCU: 0xDEC3, offset: 0x24EC6, size: 0x8, addend: 0x0, symName: __ZL46test_simple_make_trump_zero_trump_cards_round1v, symObjAddr: 0x225C, symBinAddr: 0x10000D6C4, symSize: 0x220 }
  - { offsetInCU: 0xDF0E, offset: 0x24F11, size: 0x8, addend: 0x0, symName: __ZL44test_simple_make_trump_one_trump_card_round1v, symObjAddr: 0x247C, symBinAddr: 0x10000D8E4, symSize: 0x218 }
  - { offsetInCU: 0xDF59, offset: 0x24F5C, size: 0x8, addend: 0x0, symName: __ZL47test_simple_make_trump_exactly_two_trump_round1v, symObjAddr: 0x2694, symBinAddr: 0x10000DAFC, symSize: 0x23C }
  - { offsetInCU: 0xDFA4, offset: 0x24FA7, size: 0x8, addend: 0x0, symName: __ZL49test_simple_make_trump_more_than_two_trump_round1v, symObjAddr: 0x28D0, symBinAddr: 0x10000DD38, symSize: 0x244 }
  - { offsetInCU: 0xDFEF, offset: 0x24FF2, size: 0x8, addend: 0x0, symName: __ZL44test_simple_make_trump_one_trump_card_round2v, symObjAddr: 0x2B14, symBinAddr: 0x10000DF7C, symSize: 0x244 }
  - { offsetInCU: 0xE03A, offset: 0x2503D, size: 0x8, addend: 0x0, symName: __ZL44test_simple_make_trump_no_trump_cards_round2v, symObjAddr: 0x2D58, symBinAddr: 0x10000E1C0, symSize: 0x21C }
  - { offsetInCU: 0xE085, offset: 0x25088, size: 0x8, addend: 0x0, symName: __ZL55test_simple_make_trump_force_dealer_with_no_trump_cardsv, symObjAddr: 0x2F74, symBinAddr: 0x10000E3DC, symSize: 0x240 }
  - { offsetInCU: 0xE0D0, offset: 0x250D3, size: 0x8, addend: 0x0, symName: __ZL57test_simple_make_trump_force_dealer_with_some_trump_cardsv, symObjAddr: 0x31B4, symBinAddr: 0x10000E61C, symSize: 0x240 }
  - { offsetInCU: 0xE11B, offset: 0x2511E, size: 0x8, addend: 0x0, symName: __ZL46test_simple_make_trump_with_right_bower_round1v, symObjAddr: 0x33F4, symBinAddr: 0x10000E85C, symSize: 0x23C }
  - { offsetInCU: 0xE166, offset: 0x25169, size: 0x8, addend: 0x0, symName: __ZL45test_simple_make_trump_with_left_bower_round1v, symObjAddr: 0x3630, symBinAddr: 0x10000EA98, symSize: 0x240 }
  - { offsetInCU: 0xE1B1, offset: 0x251B4, size: 0x8, addend: 0x0, symName: __ZL44test_simple_play_card_follow_suit_one_optionv, symObjAddr: 0x3870, symBinAddr: 0x10000ECD8, symSize: 0x1D4 }
  - { offsetInCU: 0xE1EC, offset: 0x251EF, size: 0x8, addend: 0x0, symName: __ZL50test_simple_play_card_follow_suit_multiple_optionsv, symObjAddr: 0x3A44, symBinAddr: 0x10000EEAC, symSize: 0x1D4 }
  - { offsetInCU: 0xE227, offset: 0x2522A, size: 0x8, addend: 0x0, symName: __ZL55test_simple_play_card_no_led_suit_play_lowest_non_trumpv, symObjAddr: 0x3C18, symBinAddr: 0x10000F080, symSize: 0x1D4 }
  - { offsetInCU: 0xE262, offset: 0x25265, size: 0x8, addend: 0x0, symName: __ZL53test_simple_play_card_no_led_suit_but_trump_availablev, symObjAddr: 0x3DEC, symBinAddr: 0x10000F254, symSize: 0x1D4 }
  - { offsetInCU: 0xE29D, offset: 0x252A0, size: 0x8, addend: 0x0, symName: __ZL31test_simple_play_card_all_trumpv, symObjAddr: 0x3FC0, symBinAddr: 0x10000F428, symSize: 0x1D4 }
  - { offsetInCU: 0xE2D8, offset: 0x252DB, size: 0x8, addend: 0x0, symName: __ZL40test_simple_play_card_only_one_card_leftv, symObjAddr: 0x4194, symBinAddr: 0x10000F5FC, symSize: 0x174 }
  - { offsetInCU: 0xE313, offset: 0x25316, size: 0x8, addend: 0x0, symName: _main, symObjAddr: 0x4308, symBinAddr: 0x10000F770, symSize: 0x34 }
  - { offsetInCU: 0xE34D, offset: 0x25350, size: 0x8, addend: 0x0, symName: __ZN19unit_test_framework9TestSuite3getEv, symObjAddr: 0x433C, symBinAddr: 0x10000F7A4, symSize: 0x80 }
  - { offsetInCU: 0xE361, offset: 0x25364, size: 0x8, addend: 0x0, symName: __ZN19unit_test_framework9TestSuite9run_testsEiPPc, symObjAddr: 0x43BC, symBinAddr: 0x10000F824, symSize: 0x690 }
  - { offsetInCU: 0xE526, offset: 0x25529, size: 0x8, addend: 0x0, symName: __ZN19unit_test_framework18TestSuiteDestroyerD1Ev, symObjAddr: 0x4A4C, symBinAddr: 0x10000FEB4, symSize: 0x2C }
  - { offsetInCU: 0xE54E, offset: 0x25551, size: 0x8, addend: 0x0, symName: __ZN19unit_test_framework14TestRegistererC2ERKNSt3__112basic_stringIcNS1_11char_traitsIcEENS1_9allocatorIcEEEEPFvvE, symObjAddr: 0x4A78, symBinAddr: 0x10000FEE0, symSize: 0x40 }
  - { offsetInCU: 0xE594, offset: 0x25597, size: 0x8, addend: 0x0, symName: __ZN19unit_test_framework9TestSuite8add_testERKNSt3__112basic_stringIcNS1_11char_traitsIcEENS1_9allocatorIcEEEEPFvvE, symObjAddr: 0x4AB8, symBinAddr: 0x10000FF20, symSize: 0xD8 }
  - { offsetInCU: 0xE5D6, offset: 0x255D9, size: 0x8, addend: 0x0, symName: __ZNSt3__13mapINS_12basic_stringIcNS_11char_traitsIcEENS_9allocatorIcEEEEN19unit_test_framework8TestCaseENS_4lessIS6_EENS4_INS_4pairIKS6_S8_EEEEE6insertB8ue170006EOSD_, symObjAddr: 0x4B90, symBinAddr: 0x10000FFF8, symSize: 0x4C }
  - { offsetInCU: 0xE609, offset: 0x2560C, size: 0x8, addend: 0x0, symName: __ZN19unit_test_framework8TestCaseC1ERKNSt3__112basic_stringIcNS1_11char_traitsIcEENS1_9allocatorIcEEEEPFvvE, symObjAddr: 0x4BDC, symBinAddr: 0x100010044, symSize: 0x3C }
  - { offsetInCU: 0xE654, offset: 0x25657, size: 0x8, addend: 0x0, symName: __ZNSt3__14pairIKNS_12basic_stringIcNS_11char_traitsIcEENS_9allocatorIcEEEEN19unit_test_framework8TestCaseEEC1B8ue170006IRS7_S9_LPv0EEEOT_OT0_, symObjAddr: 0x4C18, symBinAddr: 0x100010080, symSize: 0x3C }
  - { offsetInCU: 0xE6B1, offset: 0x256B4, size: 0x8, addend: 0x0, symName: __ZNSt3__14pairIKNS_12basic_stringIcNS_11char_traitsIcEENS_9allocatorIcEEEEN19unit_test_framework8TestCaseEED1Ev, symObjAddr: 0x4C54, symBinAddr: 0x1000100BC, symSize: 0x2C }
  - { offsetInCU: 0xE6DB, offset: 0x256DE, size: 0x8, addend: 0x0, symName: __ZN19unit_test_framework8TestCaseD1Ev, symObjAddr: 0x4C80, symBinAddr: 0x1000100E8, symSize: 0x2C }
  - { offsetInCU: 0xE707, offset: 0x2570A, size: 0x8, addend: 0x0, symName: __ZNSt3__16__treeINS_12__value_typeINS_12basic_stringIcNS_11char_traitsIcEENS_9allocatorIcEEEEN19unit_test_framework8TestCaseEEENS_19__map_value_compareIS7_SA_NS_4lessIS7_EELb1EEENS5_ISA_EEE15__insert_uniqueB8ue170006EONS_4pairIKS7_S9_EE, symObjAddr: 0x4CAC, symBinAddr: 0x100010114, symSize: 0x50 }
  - { offsetInCU: 0xE73A, offset: 0x2573D, size: 0x8, addend: 0x0, symName: __ZNSt3__14pairINS_14__map_iteratorINS_15__tree_iteratorINS_12__value_typeINS_12basic_stringIcNS_11char_traitsIcEENS_9allocatorIcEEEEN19unit_test_framework8TestCaseEEEPNS_11__tree_nodeISC_PvEElEEEEbEC1B8ue170006ISH_bLSE_0EEEONS0_IT_T0_EE, symObjAddr: 0x4CFC, symBinAddr: 0x100010164, symSize: 0x34 }
  - { offsetInCU: 0xE78A, offset: 0x2578D, size: 0x8, addend: 0x0, symName: __ZNSt3__16__treeINS_12__value_typeINS_12basic_stringIcNS_11char_traitsIcEENS_9allocatorIcEEEEN19unit_test_framework8TestCaseEEENS_19__map_value_compareIS7_SA_NS_4lessIS7_EELb1EEENS5_ISA_EEE25__emplace_unique_key_argsIS7_JNS_4pairIKS7_S9_EEEEENSI_INS_15__tree_iteratorISA_PNS_11__tree_nodeISA_PvEElEEbEERKT_DpOT0_, symObjAddr: 0x4D30, symBinAddr: 0x100010198, symSize: 0xF0 }
  - { offsetInCU: 0xE837, offset: 0x2583A, size: 0x8, addend: 0x0, symName: __ZNSt3__122__tree_key_value_typesINS_12__value_typeINS_12basic_stringIcNS_11char_traitsIcEENS_9allocatorIcEEEEN19unit_test_framework8TestCaseEEEE9__get_keyB8ue170006INS_4pairIKS7_S9_EEEENS_9enable_ifIXsr17__is_same_uncvrefIT_SF_EE5valueERSE_E4typeERSH_, symObjAddr: 0x4E20, symBinAddr: 0x100010288, symSize: 0x14 }
  - { offsetInCU: 0xE864, offset: 0x25867, size: 0x8, addend: 0x0, symName: __ZNSt3__16__treeINS_12__value_typeINS_12basic_stringIcNS_11char_traitsIcEENS_9allocatorIcEEEEN19unit_test_framework8TestCaseEEENS_19__map_value_compareIS7_SA_NS_4lessIS7_EELb1EEENS5_ISA_EEE12__find_equalIS7_EERPNS_16__tree_node_baseIPvEERPNS_15__tree_end_nodeISL_EERKT_, symObjAddr: 0x4E34, symBinAddr: 0x10001029C, symSize: 0x184 }
  - { offsetInCU: 0xE8D0, offset: 0x258D3, size: 0x8, addend: 0x0, symName: __ZNSt3__16__treeINS_12__value_typeINS_12basic_stringIcNS_11char_traitsIcEENS_9allocatorIcEEEEN19unit_test_framework8TestCaseEEENS_19__map_value_compareIS7_SA_NS_4lessIS7_EELb1EEENS5_ISA_EEE16__construct_nodeIJNS_4pairIKS7_S9_EEEEENS_10unique_ptrINS_11__tree_nodeISA_PvEENS_22__tree_node_destructorINS5_ISO_EEEEEEDpOT_, symObjAddr: 0x4FB8, symBinAddr: 0x100010420, symSize: 0x110 }
  - { offsetInCU: 0xE932, offset: 0x25935, size: 0x8, addend: 0x0, symName: __ZNSt3__16__treeINS_12__value_typeINS_12basic_stringIcNS_11char_traitsIcEENS_9allocatorIcEEEEN19unit_test_framework8TestCaseEEENS_19__map_value_compareIS7_SA_NS_4lessIS7_EELb1EEENS5_ISA_EEE16__insert_node_atEPNS_15__tree_end_nodeIPNS_16__tree_node_baseIPvEEEERSL_SL_, symObjAddr: 0x50C8, symBinAddr: 0x100010530, symSize: 0xCC }
  - { offsetInCU: 0xE986, offset: 0x25989, size: 0x8, addend: 0x0, symName: __ZNKSt3__110unique_ptrINS_11__tree_nodeINS_12__value_typeINS_12basic_stringIcNS_11char_traitsIcEENS_9allocatorIcEEEEN19unit_test_framework8TestCaseEEEPvEENS_22__tree_node_destructorINS6_ISD_EEEEE3getB8ue170006Ev, symObjAddr: 0x5194, symBinAddr: 0x1000105FC, symSize: 0x28 }
  - { offsetInCU: 0xE9AA, offset: 0x259AD, size: 0x8, addend: 0x0, symName: __ZNSt3__110unique_ptrINS_11__tree_nodeINS_12__value_typeINS_12basic_stringIcNS_11char_traitsIcEENS_9allocatorIcEEEEN19unit_test_framework8TestCaseEEEPvEENS_22__tree_node_destructorINS6_ISD_EEEEE7releaseB8ue170006Ev, symObjAddr: 0x51BC, symBinAddr: 0x100010624, symSize: 0x44 }
  - { offsetInCU: 0xE9DD, offset: 0x259E0, size: 0x8, addend: 0x0, symName: __ZNSt3__110unique_ptrINS_11__tree_nodeINS_12__value_typeINS_12basic_stringIcNS_11char_traitsIcEENS_9allocatorIcEEEEN19unit_test_framework8TestCaseEEEPvEENS_22__tree_node_destructorINS6_ISD_EEEEED1B8ue170006Ev, symObjAddr: 0x5200, symBinAddr: 0x100010668, symSize: 0x2C }
  - { offsetInCU: 0xEA05, offset: 0x25A08, size: 0x8, addend: 0x0, symName: __ZNSt3__115__tree_iteratorINS_12__value_typeINS_12basic_stringIcNS_11char_traitsIcEENS_9allocatorIcEEEEN19unit_test_framework8TestCaseEEEPNS_11__tree_nodeISA_PvEElEC1B8ue170006ESE_, symObjAddr: 0x522C, symBinAddr: 0x100010694, symSize: 0x34 }
  - { offsetInCU: 0xEA46, offset: 0x25A49, size: 0x8, addend: 0x0, symName: __ZNSt3__14pairINS_15__tree_iteratorINS_12__value_typeINS_12basic_stringIcNS_11char_traitsIcEENS_9allocatorIcEEEEN19unit_test_framework8TestCaseEEEPNS_11__tree_nodeISB_PvEElEEbEC1B8ue170006ISG_RbLSD_0EEEOT_OT0_, symObjAddr: 0x5260, symBinAddr: 0x1000106C8, symSize: 0x3C }
  - { offsetInCU: 0xEAA3, offset: 0x25AA6, size: 0x8, addend: 0x0, symName: __ZNKSt3__16__treeINS_12__value_typeINS_12basic_stringIcNS_11char_traitsIcEENS_9allocatorIcEEEEN19unit_test_framework8TestCaseEEENS_19__map_value_compareIS7_SA_NS_4lessIS7_EELb1EEENS5_ISA_EEE6__rootB8ue170006Ev, symObjAddr: 0x529C, symBinAddr: 0x100010704, symSize: 0x28 }
  - { offsetInCU: 0xEAC7, offset: 0x25ACA, size: 0x8, addend: 0x0, symName: __ZNKSt3__16__treeINS_12__value_typeINS_12basic_stringIcNS_11char_traitsIcEENS_9allocatorIcEEEEN19unit_test_framework8TestCaseEEENS_19__map_value_compareIS7_SA_NS_4lessIS7_EELb1EEENS5_ISA_EEE10__root_ptrB8ue170006Ev, symObjAddr: 0x52C4, symBinAddr: 0x10001072C, symSize: 0x24 }
  - { offsetInCU: 0xEAEB, offset: 0x25AEE, size: 0x8, addend: 0x0, symName: __ZNSt3__16__treeINS_12__value_typeINS_12basic_stringIcNS_11char_traitsIcEENS_9allocatorIcEEEEN19unit_test_framework8TestCaseEEENS_19__map_value_compareIS7_SA_NS_4lessIS7_EELb1EEENS5_ISA_EEE10value_compB8ue170006Ev, symObjAddr: 0x52E8, symBinAddr: 0x100010750, symSize: 0x28 }
  - { offsetInCU: 0xEB0F, offset: 0x25B12, size: 0x8, addend: 0x0, symName: __ZNKSt3__119__map_value_compareINS_12basic_stringIcNS_11char_traitsIcEENS_9allocatorIcEEEENS_12__value_typeIS6_N19unit_test_framework8TestCaseEEENS_4lessIS6_EELb1EEclB8ue170006ERKS6_RKSA_, symObjAddr: 0x5310, symBinAddr: 0x100010778, symSize: 0x50 }
  - { offsetInCU: 0xEB51, offset: 0x25B54, size: 0x8, addend: 0x0, symName: __ZNKSt3__119__map_value_compareINS_12basic_stringIcNS_11char_traitsIcEENS_9allocatorIcEEEENS_12__value_typeIS6_N19unit_test_framework8TestCaseEEENS_4lessIS6_EELb1EEclB8ue170006ERKSA_RKS6_, symObjAddr: 0x5360, symBinAddr: 0x1000107C8, symSize: 0x48 }
  - { offsetInCU: 0xEB93, offset: 0x25B96, size: 0x8, addend: 0x0, symName: __ZNSt3__16__treeINS_12__value_typeINS_12basic_stringIcNS_11char_traitsIcEENS_9allocatorIcEEEEN19unit_test_framework8TestCaseEEENS_19__map_value_compareIS7_SA_NS_4lessIS7_EELb1EEENS5_ISA_EEE10__end_nodeB8ue170006Ev, symObjAddr: 0x53A8, symBinAddr: 0x100010810, symSize: 0x2C }
  - { offsetInCU: 0xEBB7, offset: 0x25BBA, size: 0x8, addend: 0x0, symName: __ZNKSt3__16__treeINS_12__value_typeINS_12basic_stringIcNS_11char_traitsIcEENS_9allocatorIcEEEEN19unit_test_framework8TestCaseEEENS_19__map_value_compareIS7_SA_NS_4lessIS7_EELb1EEENS5_ISA_EEE10__end_nodeB8ue170006Ev, symObjAddr: 0x53D4, symBinAddr: 0x10001083C, symSize: 0x2C }
  - { offsetInCU: 0xEBDB, offset: 0x25BDE, size: 0x8, addend: 0x0, symName: __ZNSt3__114pointer_traitsIPNS_15__tree_end_nodeIPNS_16__tree_node_baseIPvEEEEE10pointer_toB8ue170006ERS6_, symObjAddr: 0x5400, symBinAddr: 0x100010868, symSize: 0x14 }
  - { offsetInCU: 0xEBFE, offset: 0x25C01, size: 0x8, addend: 0x0, symName: __ZNKSt3__117__compressed_pairINS_15__tree_end_nodeIPNS_16__tree_node_baseIPvEEEENS_9allocatorINS_11__tree_nodeINS_12__value_typeINS_12basic_stringIcNS_11char_traitsIcEENS7_IcEEEEN19unit_test_framework8TestCaseEEES3_EEEEE5firstB8ue170006Ev, symObjAddr: 0x5414, symBinAddr: 0x10001087C, symSize: 0x24 }
  - { offsetInCU: 0xEC22, offset: 0x25C25, size: 0x8, addend: 0x0, symName: __ZNKSt3__122__compressed_pair_elemINS_15__tree_end_nodeIPNS_16__tree_node_baseIPvEEEELi0ELb0EE5__getB8ue170006Ev, symObjAddr: 0x5438, symBinAddr: 0x1000108A0, symSize: 0x14 }
  - { offsetInCU: 0xEC47, offset: 0x25C4A, size: 0x8, addend: 0x0, symName: __ZNSt3__117__compressed_pairImNS_19__map_value_compareINS_12basic_stringIcNS_11char_traitsIcEENS_9allocatorIcEEEENS_12__value_typeIS7_N19unit_test_framework8TestCaseEEENS_4lessIS7_EELb1EEEE6secondB8ue170006Ev, symObjAddr: 0x544C, symBinAddr: 0x1000108B4, symSize: 0x24 }
  - { offsetInCU: 0xEC6B, offset: 0x25C6E, size: 0x8, addend: 0x0, symName: __ZNSt3__122__compressed_pair_elemINS_19__map_value_compareINS_12basic_stringIcNS_11char_traitsIcEENS_9allocatorIcEEEENS_12__value_typeIS7_N19unit_test_framework8TestCaseEEENS_4lessIS7_EELb1EEELi1ELb1EE5__getB8ue170006Ev, symObjAddr: 0x5470, symBinAddr: 0x1000108D8, symSize: 0x14 }
  - { offsetInCU: 0xEC90, offset: 0x25C93, size: 0x8, addend: 0x0, symName: __ZNKSt3__14lessINS_12basic_stringIcNS_11char_traitsIcEENS_9allocatorIcEEEEEclB8ue170006ERKS6_S9_, symObjAddr: 0x5484, symBinAddr: 0x1000108EC, symSize: 0x34 }
  - { offsetInCU: 0xECD2, offset: 0x25CD5, size: 0x8, addend: 0x0, symName: __ZNKSt3__112__value_typeINS_12basic_stringIcNS_11char_traitsIcEENS_9allocatorIcEEEEN19unit_test_framework8TestCaseEE11__get_valueB8ue170006Ev, symObjAddr: 0x54B8, symBinAddr: 0x100010920, symSize: 0x24 }
  - { offsetInCU: 0xECF6, offset: 0x25CF9, size: 0x8, addend: 0x0, symName: __ZNKSt3__112basic_stringIcNS_11char_traitsIcEENS_9allocatorIcEEE7compareB8ue170006ERKS5_, symObjAddr: 0x5514, symBinAddr: 0x10001097C, symSize: 0x4C }
  - { offsetInCU: 0xED2C, offset: 0x25D2F, size: 0x8, addend: 0x0, symName: __ZNKSt3__112basic_stringIcNS_11char_traitsIcEENS_9allocatorIcEEE7compareINS_17basic_string_viewIcS2_EELi0EEEiRKT_, symObjAddr: 0x5560, symBinAddr: 0x1000109C8, symSize: 0x12C }
  - { offsetInCU: 0xEDAF, offset: 0x25DB2, size: 0x8, addend: 0x0, symName: __ZNKSt3__112basic_stringIcNS_11char_traitsIcEENS_9allocatorIcEEEcvNS_17basic_string_viewIcS2_EEB8ue170006Ev, symObjAddr: 0x568C, symBinAddr: 0x100010AF4, symSize: 0x50 }
  - { offsetInCU: 0xEDD3, offset: 0x25DD6, size: 0x8, addend: 0x0, symName: __ZNKSt3__117basic_string_viewIcNS_11char_traitsIcEEE4sizeB8ue170006Ev, symObjAddr: 0x5730, symBinAddr: 0x100010B44, symSize: 0x18 }
  - { offsetInCU: 0xEDF8, offset: 0x25DFB, size: 0x8, addend: 0x0, symName: __ZNSt3__111char_traitsIcE7compareB8ue170006EPKcS3_m, symObjAddr: 0x5748, symBinAddr: 0x100010B5C, symSize: 0x34 }
  - { offsetInCU: 0xEE37, offset: 0x25E3A, size: 0x8, addend: 0x0, symName: __ZNKSt3__117basic_string_viewIcNS_11char_traitsIcEEE4dataB8ue170006Ev, symObjAddr: 0x57A4, symBinAddr: 0x100010B90, symSize: 0x18 }
  - { offsetInCU: 0xEE5C, offset: 0x25E5F, size: 0x8, addend: 0x0, symName: __ZNSt3__117basic_string_viewIcNS_11char_traitsIcEEEC1B8ue170006EPKcm, symObjAddr: 0x5A14, symBinAddr: 0x100010BA8, symSize: 0x3C }
  - { offsetInCU: 0xEEA2, offset: 0x25EA5, size: 0x8, addend: 0x0, symName: __ZNSt3__117basic_string_viewIcNS_11char_traitsIcEEEC2B8ue170006EPKcm, symObjAddr: 0x5A50, symBinAddr: 0x100010BE4, symSize: 0x2C }
  - { offsetInCU: 0xEEE9, offset: 0x25EEC, size: 0x8, addend: 0x0, symName: __ZNSt3__117__compressed_pairINS_15__tree_end_nodeIPNS_16__tree_node_baseIPvEEEENS_9allocatorINS_11__tree_nodeINS_12__value_typeINS_12basic_stringIcNS_11char_traitsIcEENS7_IcEEEEN19unit_test_framework8TestCaseEEES3_EEEEE5firstB8ue170006Ev, symObjAddr: 0x5AB4, symBinAddr: 0x100010C48, symSize: 0x24 }
  - { offsetInCU: 0xEF0D, offset: 0x25F10, size: 0x8, addend: 0x0, symName: __ZNSt3__122__compressed_pair_elemINS_15__tree_end_nodeIPNS_16__tree_node_baseIPvEEEELi0ELb0EE5__getB8ue170006Ev, symObjAddr: 0x5AD8, symBinAddr: 0x100010C6C, symSize: 0x14 }
  - { offsetInCU: 0xEF32, offset: 0x25F35, size: 0x8, addend: 0x0, symName: __ZNSt3__16__treeINS_12__value_typeINS_12basic_stringIcNS_11char_traitsIcEENS_9allocatorIcEEEEN19unit_test_framework8TestCaseEEENS_19__map_value_compareIS7_SA_NS_4lessIS7_EELb1EEENS5_ISA_EEE12__node_allocB8ue170006Ev, symObjAddr: 0x5AEC, symBinAddr: 0x100010C80, symSize: 0x28 }
  - { offsetInCU: 0xEF56, offset: 0x25F59, size: 0x8, addend: 0x0, symName: __ZNSt3__116allocator_traitsINS_9allocatorINS_11__tree_nodeINS_12__value_typeINS_12basic_stringIcNS_11char_traitsIcEENS1_IcEEEEN19unit_test_framework8TestCaseEEEPvEEEEE8allocateB8ue170006ERSE_m, symObjAddr: 0x5B14, symBinAddr: 0x100010CA8, symSize: 0x2C }
  - { offsetInCU: 0xEF89, offset: 0x25F8C, size: 0x8, addend: 0x0, symName: __ZNSt3__122__tree_node_destructorINS_9allocatorINS_11__tree_nodeINS_12__value_typeINS_12basic_stringIcNS_11char_traitsIcEENS1_IcEEEEN19unit_test_framework8TestCaseEEEPvEEEEEC1B8ue170006ERSE_b, symObjAddr: 0x5B40, symBinAddr: 0x100010CD4, symSize: 0x48 }
  - { offsetInCU: 0xEFD4, offset: 0x25FD7, size: 0x8, addend: 0x0, symName: __ZNSt3__110unique_ptrINS_11__tree_nodeINS_12__value_typeINS_12basic_stringIcNS_11char_traitsIcEENS_9allocatorIcEEEEN19unit_test_framework8TestCaseEEEPvEENS_22__tree_node_destructorINS6_ISD_EEEEEC1B8ue170006ILb1EvEEPSD_NS_16__dependent_typeINS_27__unique_ptr_deleter_sfinaeISG_EEXT_EE20__good_rval_ref_typeE, symObjAddr: 0x5B88, symBinAddr: 0x100010D1C, symSize: 0x3C }
  - { offsetInCU: 0xF023, offset: 0x26026, size: 0x8, addend: 0x0, symName: __ZNSt3__116allocator_traitsINS_9allocatorINS_11__tree_nodeINS_12__value_typeINS_12basic_stringIcNS_11char_traitsIcEENS1_IcEEEEN19unit_test_framework8TestCaseEEEPvEEEEE9constructB8ue170006INS_4pairIKS8_SA_EEJSJ_EvEEvRSE_PT_DpOT0_, symObjAddr: 0x5BC4, symBinAddr: 0x100010D58, symSize: 0x34 }
  - { offsetInCU: 0xF07C, offset: 0x2607F, size: 0x8, addend: 0x0, symName: __ZNSt3__122__tree_key_value_typesINS_12__value_typeINS_12basic_stringIcNS_11char_traitsIcEENS_9allocatorIcEEEEN19unit_test_framework8TestCaseEEEE9__get_ptrB8ue170006ERSA_, symObjAddr: 0x5BF8, symBinAddr: 0x100010D8C, symSize: 0x24 }
  - { offsetInCU: 0xF0A0, offset: 0x260A3, size: 0x8, addend: 0x0, symName: __ZNKSt3__110unique_ptrINS_11__tree_nodeINS_12__value_typeINS_12basic_stringIcNS_11char_traitsIcEENS_9allocatorIcEEEEN19unit_test_framework8TestCaseEEEPvEENS_22__tree_node_destructorINS6_ISD_EEEEEptB8ue170006Ev, symObjAddr: 0x5C1C, symBinAddr: 0x100010DB0, symSize: 0x28 }
  - { offsetInCU: 0xF0C4, offset: 0x260C7, size: 0x8, addend: 0x0, symName: __ZNSt3__110unique_ptrINS_11__tree_nodeINS_12__value_typeINS_12basic_stringIcNS_11char_traitsIcEENS_9allocatorIcEEEEN19unit_test_framework8TestCaseEEEPvEENS_22__tree_node_destructorINS6_ISD_EEEEE11get_deleterB8ue170006Ev, symObjAddr: 0x5C44, symBinAddr: 0x100010DD8, symSize: 0x24 }
  - { offsetInCU: 0xF0E8, offset: 0x260EB, size: 0x8, addend: 0x0, symName: __ZNSt3__117__compressed_pairINS_15__tree_end_nodeIPNS_16__tree_node_baseIPvEEEENS_9allocatorINS_11__tree_nodeINS_12__value_typeINS_12basic_stringIcNS_11char_traitsIcEENS7_IcEEEEN19unit_test_framework8TestCaseEEES3_EEEEE6secondB8ue170006Ev, symObjAddr: 0x5C68, symBinAddr: 0x100010DFC, symSize: 0x24 }
  - { offsetInCU: 0xF10C, offset: 0x2610F, size: 0x8, addend: 0x0, symName: __ZNSt3__122__compressed_pair_elemINS_9allocatorINS_11__tree_nodeINS_12__value_typeINS_12basic_stringIcNS_11char_traitsIcEENS1_IcEEEEN19unit_test_framework8TestCaseEEEPvEEEELi1ELb1EE5__getB8ue170006Ev, symObjAddr: 0x5C8C, symBinAddr: 0x100010E20, symSize: 0x14 }
  - { offsetInCU: 0xF131, offset: 0x26134, size: 0x8, addend: 0x0, symName: __ZNSt3__19allocatorINS_11__tree_nodeINS_12__value_typeINS_12basic_stringIcNS_11char_traitsIcEENS0_IcEEEEN19unit_test_framework8TestCaseEEEPvEEE8allocateB8ue170006Em, symObjAddr: 0x5CA0, symBinAddr: 0x100010E34, symSize: 0x5C }
  - { offsetInCU: 0xF16D, offset: 0x26170, size: 0x8, addend: 0x0, symName: __ZNSt3__116allocator_traitsINS_9allocatorINS_11__tree_nodeINS_12__value_typeINS_12basic_stringIcNS_11char_traitsIcEENS1_IcEEEEN19unit_test_framework8TestCaseEEEPvEEEEE8max_sizeB8ue170006ISE_vEEmRKSE_, symObjAddr: 0x5CFC, symBinAddr: 0x100010E90, symSize: 0x24 }
  - { offsetInCU: 0xF19B, offset: 0x2619E, size: 0x8, addend: 0x0, symName: __ZNKSt3__19allocatorINS_11__tree_nodeINS_12__value_typeINS_12basic_stringIcNS_11char_traitsIcEENS0_IcEEEEN19unit_test_framework8TestCaseEEEPvEEE8max_sizeB8ue170006Ev, symObjAddr: 0x5DB4, symBinAddr: 0x100010EB4, symSize: 0x18 }
  - { offsetInCU: 0xF1C0, offset: 0x261C3, size: 0x8, addend: 0x0, symName: __ZNSt3__122__tree_node_destructorINS_9allocatorINS_11__tree_nodeINS_12__value_typeINS_12basic_stringIcNS_11char_traitsIcEENS1_IcEEEEN19unit_test_framework8TestCaseEEEPvEEEEEC2B8ue170006ERSE_b, symObjAddr: 0x5E3C, symBinAddr: 0x100010ECC, symSize: 0x38 }
  - { offsetInCU: 0xF207, offset: 0x2620A, size: 0x8, addend: 0x0, symName: __ZNSt3__110unique_ptrINS_11__tree_nodeINS_12__value_typeINS_12basic_stringIcNS_11char_traitsIcEENS_9allocatorIcEEEEN19unit_test_framework8TestCaseEEEPvEENS_22__tree_node_destructorINS6_ISD_EEEEEC2B8ue170006ILb1EvEEPSD_NS_16__dependent_typeINS_27__unique_ptr_deleter_sfinaeISG_EEXT_EE20__good_rval_ref_typeE, symObjAddr: 0x5E74, symBinAddr: 0x100010F04, symSize: 0x48 }
  - { offsetInCU: 0xF256, offset: 0x26259, size: 0x8, addend: 0x0, symName: __ZNSt3__117__compressed_pairIPNS_11__tree_nodeINS_12__value_typeINS_12basic_stringIcNS_11char_traitsIcEENS_9allocatorIcEEEEN19unit_test_framework8TestCaseEEEPvEENS_22__tree_node_destructorINS6_ISD_EEEEEC1B8ue170006IRSE_SH_EEOT_OT0_, symObjAddr: 0x5EBC, symBinAddr: 0x100010F4C, symSize: 0x3C }
  - { offsetInCU: 0xF2AC, offset: 0x262AF, size: 0x8, addend: 0x0, symName: __ZNSt3__117__compressed_pairIPNS_11__tree_nodeINS_12__value_typeINS_12basic_stringIcNS_11char_traitsIcEENS_9allocatorIcEEEEN19unit_test_framework8TestCaseEEEPvEENS_22__tree_node_destructorINS6_ISD_EEEEEC2B8ue170006IRSE_SH_EEOT_OT0_, symObjAddr: 0x5EF8, symBinAddr: 0x100010F88, symSize: 0x48 }
  - { offsetInCU: 0xF302, offset: 0x26305, size: 0x8, addend: 0x0, symName: __ZNSt3__122__compressed_pair_elemIPNS_11__tree_nodeINS_12__value_typeINS_12basic_stringIcNS_11char_traitsIcEENS_9allocatorIcEEEEN19unit_test_framework8TestCaseEEEPvEELi0ELb0EEC2B8ue170006IRSE_vEEOT_, symObjAddr: 0x5F40, symBinAddr: 0x100010FD0, symSize: 0x24 }
  - { offsetInCU: 0xF343, offset: 0x26346, size: 0x8, addend: 0x0, symName: __ZNSt3__122__compressed_pair_elemINS_22__tree_node_destructorINS_9allocatorINS_11__tree_nodeINS_12__value_typeINS_12basic_stringIcNS_11char_traitsIcEENS2_IcEEEEN19unit_test_framework8TestCaseEEEPvEEEEEELi1ELb0EEC2B8ue170006ISG_vEEOT_, symObjAddr: 0x5F64, symBinAddr: 0x100010FF4, symSize: 0x24 }
  - { offsetInCU: 0xF384, offset: 0x26387, size: 0x8, addend: 0x0, symName: __ZNSt3__19allocatorINS_11__tree_nodeINS_12__value_typeINS_12basic_stringIcNS_11char_traitsIcEENS0_IcEEEEN19unit_test_framework8TestCaseEEEPvEEE9constructB8ue170006INS_4pairIKS7_S9_EEJSH_EEEvPT_DpOT0_, symObjAddr: 0x5F88, symBinAddr: 0x100011018, symSize: 0x30 }
  - { offsetInCU: 0xF3DA, offset: 0x263DD, size: 0x8, addend: 0x0, symName: __ZNSt3__14pairIKNS_12basic_stringIcNS_11char_traitsIcEENS_9allocatorIcEEEEN19unit_test_framework8TestCaseEEC1B8ue170006EOSA_, symObjAddr: 0x5FB8, symBinAddr: 0x100011048, symSize: 0x34 }
  - { offsetInCU: 0xF40D, offset: 0x26410, size: 0x8, addend: 0x0, symName: __ZNSt3__14pairIKNS_12basic_stringIcNS_11char_traitsIcEENS_9allocatorIcEEEEN19unit_test_framework8TestCaseEEC2B8ue170006EOSA_, symObjAddr: 0x5FEC, symBinAddr: 0x10001107C, symSize: 0x48 }
  - { offsetInCU: 0xF440, offset: 0x26443, size: 0x8, addend: 0x0, symName: __ZN19unit_test_framework8TestCaseC1EOS0_, symObjAddr: 0x6034, symBinAddr: 0x1000110C4, symSize: 0x34 }
  - { offsetInCU: 0xF475, offset: 0x26478, size: 0x8, addend: 0x0, symName: __ZN19unit_test_framework8TestCaseC2EOS0_, symObjAddr: 0x6068, symBinAddr: 0x1000110F8, symSize: 0x68 }
  - { offsetInCU: 0xF4AA, offset: 0x264AD, size: 0x8, addend: 0x0, symName: __ZNSt3__112basic_stringIcNS_11char_traitsIcEENS_9allocatorIcEEEC1B8ue170006EOS5_, symObjAddr: 0x60D0, symBinAddr: 0x100011160, symSize: 0x34 }
  - { offsetInCU: 0xF4E1, offset: 0x264E4, size: 0x8, addend: 0x0, symName: __ZNSt3__112basic_stringIcNS_11char_traitsIcEENS_9allocatorIcEEEC2B8ue170006EOS5_, symObjAddr: 0x6104, symBinAddr: 0x100011194, symSize: 0x50 }
  - { offsetInCU: 0xF518, offset: 0x2651B, size: 0x8, addend: 0x0, symName: __ZNSt3__112__value_typeINS_12basic_stringIcNS_11char_traitsIcEENS_9allocatorIcEEEEN19unit_test_framework8TestCaseEE11__get_valueB8ue170006Ev, symObjAddr: 0x61CC, symBinAddr: 0x1000111E4, symSize: 0x24 }
  - { offsetInCU: 0xF53C, offset: 0x2653F, size: 0x8, addend: 0x0, symName: __ZNKSt3__117__compressed_pairIPNS_11__tree_nodeINS_12__value_typeINS_12basic_stringIcNS_11char_traitsIcEENS_9allocatorIcEEEEN19unit_test_framework8TestCaseEEEPvEENS_22__tree_node_destructorINS6_ISD_EEEEE5firstB8ue170006Ev, symObjAddr: 0x6228, symBinAddr: 0x100011240, symSize: 0x24 }
  - { offsetInCU: 0xF560, offset: 0x26563, size: 0x8, addend: 0x0, symName: __ZNKSt3__122__compressed_pair_elemIPNS_11__tree_nodeINS_12__value_typeINS_12basic_stringIcNS_11char_traitsIcEENS_9allocatorIcEEEEN19unit_test_framework8TestCaseEEEPvEELi0ELb0EE5__getB8ue170006Ev, symObjAddr: 0x624C, symBinAddr: 0x100011264, symSize: 0x14 }
  - { offsetInCU: 0xF585, offset: 0x26588, size: 0x8, addend: 0x0, symName: __ZNSt3__117__compressed_pairIPNS_11__tree_nodeINS_12__value_typeINS_12basic_stringIcNS_11char_traitsIcEENS_9allocatorIcEEEEN19unit_test_framework8TestCaseEEEPvEENS_22__tree_node_destructorINS6_ISD_EEEEE6secondB8ue170006Ev, symObjAddr: 0x6260, symBinAddr: 0x100011278, symSize: 0x28 }
  - { offsetInCU: 0xF5A9, offset: 0x265AC, size: 0x8, addend: 0x0, symName: __ZNSt3__122__compressed_pair_elemINS_22__tree_node_destructorINS_9allocatorINS_11__tree_nodeINS_12__value_typeINS_12basic_stringIcNS_11char_traitsIcEENS2_IcEEEEN19unit_test_framework8TestCaseEEEPvEEEEEELi1ELb0EE5__getB8ue170006Ev, symObjAddr: 0x6288, symBinAddr: 0x1000112A0, symSize: 0x14 }
  - { offsetInCU: 0xF5CE, offset: 0x265D1, size: 0x8, addend: 0x0, symName: __ZNSt3__16__treeINS_12__value_typeINS_12basic_stringIcNS_11char_traitsIcEENS_9allocatorIcEEEEN19unit_test_framework8TestCaseEEENS_19__map_value_compareIS7_SA_NS_4lessIS7_EELb1EEENS5_ISA_EEE12__begin_nodeB8ue170006Ev, symObjAddr: 0x629C, symBinAddr: 0x1000112B4, symSize: 0x14 }
  - { offsetInCU: 0xF5F3, offset: 0x265F6, size: 0x8, addend: 0x0, symName: __ZNSt3__16__treeINS_12__value_typeINS_12basic_stringIcNS_11char_traitsIcEENS_9allocatorIcEEEEN19unit_test_framework8TestCaseEEENS_19__map_value_compareIS7_SA_NS_4lessIS7_EELb1EEENS5_ISA_EEE4sizeB8ue170006Ev, symObjAddr: 0x65DC, symBinAddr: 0x1000115F4, symSize: 0x28 }
  - { offsetInCU: 0xF617, offset: 0x2661A, size: 0x8, addend: 0x0, symName: __ZNKSt3__116__tree_node_baseIPvE15__parent_unsafeB8ue170006Ev, symObjAddr: 0x6604, symBinAddr: 0x10001161C, symSize: 0x18 }
  - { offsetInCU: 0xF63C, offset: 0x2663F, size: 0x8, addend: 0x0, symName: __ZNSt3__116__tree_node_baseIPvE12__set_parentB8ue170006EPS2_, symObjAddr: 0x67EC, symBinAddr: 0x100011804, symSize: 0x20 }
  - { offsetInCU: 0xF670, offset: 0x26673, size: 0x8, addend: 0x0, symName: __ZNSt3__117__compressed_pairImNS_19__map_value_compareINS_12basic_stringIcNS_11char_traitsIcEENS_9allocatorIcEEEENS_12__value_typeIS7_N19unit_test_framework8TestCaseEEENS_4lessIS7_EELb1EEEE5firstB8ue170006Ev, symObjAddr: 0x680C, symBinAddr: 0x100011824, symSize: 0x24 }
  - { offsetInCU: 0xF694, offset: 0x26697, size: 0x8, addend: 0x0, symName: __ZNSt3__122__compressed_pair_elemImLi0ELb0EE5__getB8ue170006Ev, symObjAddr: 0x6830, symBinAddr: 0x100011848, symSize: 0x14 }
  - { offsetInCU: 0xF6B9, offset: 0x266BC, size: 0x8, addend: 0x0, symName: __ZNSt3__117__compressed_pairIPNS_11__tree_nodeINS_12__value_typeINS_12basic_stringIcNS_11char_traitsIcEENS_9allocatorIcEEEEN19unit_test_framework8TestCaseEEEPvEENS_22__tree_node_destructorINS6_ISD_EEEEE5firstB8ue170006Ev, symObjAddr: 0x6844, symBinAddr: 0x10001185C, symSize: 0x24 }
  - { offsetInCU: 0xF6DD, offset: 0x266E0, size: 0x8, addend: 0x0, symName: __ZNSt3__122__compressed_pair_elemIPNS_11__tree_nodeINS_12__value_typeINS_12basic_stringIcNS_11char_traitsIcEENS_9allocatorIcEEEEN19unit_test_framework8TestCaseEEEPvEELi0ELb0EE5__getB8ue170006Ev, symObjAddr: 0x6868, symBinAddr: 0x100011880, symSize: 0x14 }
  - { offsetInCU: 0xF702, offset: 0x26705, size: 0x8, addend: 0x0, symName: __ZNSt3__110unique_ptrINS_11__tree_nodeINS_12__value_typeINS_12basic_stringIcNS_11char_traitsIcEENS_9allocatorIcEEEEN19unit_test_framework8TestCaseEEEPvEENS_22__tree_node_destructorINS6_ISD_EEEEED2B8ue170006Ev, symObjAddr: 0x687C, symBinAddr: 0x100011894, symSize: 0x30 }
  - { offsetInCU: 0xF72A, offset: 0x2672D, size: 0x8, addend: 0x0, symName: __ZNSt3__110unique_ptrINS_11__tree_nodeINS_12__value_typeINS_12basic_stringIcNS_11char_traitsIcEENS_9allocatorIcEEEEN19unit_test_framework8TestCaseEEEPvEENS_22__tree_node_destructorINS6_ISD_EEEEE5resetB8ue170006EPSD_, symObjAddr: 0x68AC, symBinAddr: 0x1000118C4, symSize: 0x78 }
  - { offsetInCU: 0xF76C, offset: 0x2676F, size: 0x8, addend: 0x0, symName: __ZNSt3__122__tree_node_destructorINS_9allocatorINS_11__tree_nodeINS_12__value_typeINS_12basic_stringIcNS_11char_traitsIcEENS1_IcEEEEN19unit_test_framework8TestCaseEEEPvEEEEEclB8ue170006EPSD_, symObjAddr: 0x6924, symBinAddr: 0x10001193C, symSize: 0x98 }
  - { offsetInCU: 0xF79F, offset: 0x267A2, size: 0x8, addend: 0x0, symName: __ZNSt3__116allocator_traitsINS_9allocatorINS_11__tree_nodeINS_12__value_typeINS_12basic_stringIcNS_11char_traitsIcEENS1_IcEEEEN19unit_test_framework8TestCaseEEEPvEEEEE7destroyB8ue170006INS_4pairIKS8_SA_EEvvEEvRSE_PT_, symObjAddr: 0x69BC, symBinAddr: 0x1000119D4, symSize: 0x28 }
  - { offsetInCU: 0xF7DA, offset: 0x267DD, size: 0x8, addend: 0x0, symName: __ZNSt3__116allocator_traitsINS_9allocatorINS_11__tree_nodeINS_12__value_typeINS_12basic_stringIcNS_11char_traitsIcEENS1_IcEEEEN19unit_test_framework8TestCaseEEEPvEEEEE10deallocateB8ue170006ERSE_PSD_m, symObjAddr: 0x69E4, symBinAddr: 0x1000119FC, symSize: 0x34 }
  - { offsetInCU: 0xF81C, offset: 0x2681F, size: 0x8, addend: 0x0, symName: __ZNSt3__19allocatorINS_11__tree_nodeINS_12__value_typeINS_12basic_stringIcNS_11char_traitsIcEENS0_IcEEEEN19unit_test_framework8TestCaseEEEPvEEE10deallocateB8ue170006EPSC_m, symObjAddr: 0x6A18, symBinAddr: 0x100011A30, symSize: 0x44 }
  - { offsetInCU: 0xF85C, offset: 0x2685F, size: 0x8, addend: 0x0, symName: __ZNSt3__115__tree_iteratorINS_12__value_typeINS_12basic_stringIcNS_11char_traitsIcEENS_9allocatorIcEEEEN19unit_test_framework8TestCaseEEEPNS_11__tree_nodeISA_PvEElEC2B8ue170006ESE_, symObjAddr: 0x6B64, symBinAddr: 0x100011A74, symSize: 0x20 }
  - { offsetInCU: 0xF894, offset: 0x26897, size: 0x8, addend: 0x0, symName: __ZNSt3__14pairINS_15__tree_iteratorINS_12__value_typeINS_12basic_stringIcNS_11char_traitsIcEENS_9allocatorIcEEEEN19unit_test_framework8TestCaseEEEPNS_11__tree_nodeISB_PvEElEEbEC2B8ue170006ISG_RbLSD_0EEEOT_OT0_, symObjAddr: 0x6B84, symBinAddr: 0x100011A94, symSize: 0x38 }
  - { offsetInCU: 0xF8F2, offset: 0x268F5, size: 0x8, addend: 0x0, symName: __ZNSt3__14pairINS_14__map_iteratorINS_15__tree_iteratorINS_12__value_typeINS_12basic_stringIcNS_11char_traitsIcEENS_9allocatorIcEEEEN19unit_test_framework8TestCaseEEEPNS_11__tree_nodeISC_PvEElEEEEbEC2B8ue170006ISH_bLSE_0EEEONS0_IT_T0_EE, symObjAddr: 0x6BBC, symBinAddr: 0x100011ACC, symSize: 0x50 }
  - { offsetInCU: 0xF942, offset: 0x26945, size: 0x8, addend: 0x0, symName: __ZNSt3__114__map_iteratorINS_15__tree_iteratorINS_12__value_typeINS_12basic_stringIcNS_11char_traitsIcEENS_9allocatorIcEEEEN19unit_test_framework8TestCaseEEEPNS_11__tree_nodeISB_PvEElEEEC1B8ue170006ESG_, symObjAddr: 0x6C0C, symBinAddr: 0x100011B1C, symSize: 0x34 }
  - { offsetInCU: 0xF979, offset: 0x2697C, size: 0x8, addend: 0x0, symName: __ZNSt3__114__map_iteratorINS_15__tree_iteratorINS_12__value_typeINS_12basic_stringIcNS_11char_traitsIcEENS_9allocatorIcEEEEN19unit_test_framework8TestCaseEEEPNS_11__tree_nodeISB_PvEElEEEC2B8ue170006ESG_, symObjAddr: 0x6C40, symBinAddr: 0x100011B50, symSize: 0x20 }
  - { offsetInCU: 0xF9B1, offset: 0x269B4, size: 0x8, addend: 0x0, symName: __ZN19unit_test_framework8TestCaseC2ERKNSt3__112basic_stringIcNS1_11char_traitsIcEENS1_9allocatorIcEEEEPFvvE, symObjAddr: 0x6C60, symBinAddr: 0x100011B70, symSize: 0x58 }
  - { offsetInCU: 0xF9FC, offset: 0x269FF, size: 0x8, addend: 0x0, symName: __ZNSt3__14pairIKNS_12basic_stringIcNS_11char_traitsIcEENS_9allocatorIcEEEEN19unit_test_framework8TestCaseEEC2B8ue170006IRS7_S9_LPv0EEEOT_OT0_, symObjAddr: 0x6E20, symBinAddr: 0x100011BC8, symSize: 0x48 }
  - { offsetInCU: 0xFA59, offset: 0x26A5C, size: 0x8, addend: 0x0, symName: __ZNSt3__14pairIKNS_12basic_stringIcNS_11char_traitsIcEENS_9allocatorIcEEEEN19unit_test_framework8TestCaseEED2Ev, symObjAddr: 0x6E68, symBinAddr: 0x100011C10, symSize: 0x38 }
  - { offsetInCU: 0xFA83, offset: 0x26A86, size: 0x8, addend: 0x0, symName: __ZN19unit_test_framework8TestCaseD2Ev, symObjAddr: 0x6EA0, symBinAddr: 0x100011C48, symSize: 0x44 }
  - { offsetInCU: 0xFAC5, offset: 0x26AC8, size: 0x8, addend: 0x0, symName: __ZN19unit_test_framework10Assertions12assert_equalIRA6_KcRKNSt3__112basic_stringIcNS5_11char_traitsIcEENS5_9allocatorIcEEEEEEvOT_OT0_iPS2_, symObjAddr: 0x6EE4, symBinAddr: 0x100011C8C, symSize: 0x174 }
  - { offsetInCU: 0xFB4E, offset: 0x26B51, size: 0x8, addend: 0x0, symName: __ZN19unit_test_framework10Assertions12assert_equalIRA4_KcRKNSt3__112basic_stringIcNS5_11char_traitsIcEENS5_9allocatorIcEEEEEEvOT_OT0_iPS2_, symObjAddr: 0x7058, symBinAddr: 0x100011E00, symSize: 0x174 }
  - { offsetInCU: 0xFBC1, offset: 0x26BC4, size: 0x8, addend: 0x0, symName: __ZN19unit_test_framework10Assertions11safe_equalsIRA6_KcRKNSt3__112basic_stringIcNS5_11char_traitsIcEENS5_9allocatorIcEEEEvE6equalsES4_SD_, symObjAddr: 0x71CC, symBinAddr: 0x100011F74, symSize: 0x30 }
  - { offsetInCU: 0xFC44, offset: 0x26C47, size: 0x8, addend: 0x0, symName: __ZNSt3__119basic_ostringstreamIcNS_11char_traitsIcEENS_9allocatorIcEEEC1B8ue170006Ev, symObjAddr: 0x71FC, symBinAddr: 0x100011FA4, symSize: 0xEC }
  - { offsetInCU: 0xFC6C, offset: 0x26C6F, size: 0x8, addend: 0x0, symName: __ZN19unit_test_framework10Diagnostic5printIA6_cEERNSt3__113basic_ostreamIcNS3_11char_traitsIcEEEES8_RKT_, symObjAddr: 0x72E8, symBinAddr: 0x100012090, symSize: 0x34 }
  - { offsetInCU: 0xFCA6, offset: 0x26CA9, size: 0x8, addend: 0x0, symName: __ZN19unit_test_framework10Diagnostic5printINSt3__112basic_stringIcNS2_11char_traitsIcEENS2_9allocatorIcEEEEEERNS2_13basic_ostreamIcS5_EESB_RKT_, symObjAddr: 0x7364, symBinAddr: 0x1000120C4, symSize: 0x34 }
  - { offsetInCU: 0xFCE0, offset: 0x26CE3, size: 0x8, addend: 0x0, symName: __ZNKSt3__119basic_ostringstreamIcNS_11char_traitsIcEENS_9allocatorIcEEE3strB8ue170006Ev, symObjAddr: 0x7398, symBinAddr: 0x1000120F8, symSize: 0x30 }
  - { offsetInCU: 0xFD13, offset: 0x26D16, size: 0x8, addend: 0x0, symName: __ZN19unit_test_framework11TestFailureC1ENSt3__112basic_stringIcNS1_11char_traitsIcEENS1_9allocatorIcEEEEiPKc, symObjAddr: 0x73C8, symBinAddr: 0x100012128, symSize: 0x44 }
  - { offsetInCU: 0xFD66, offset: 0x26D69, size: 0x8, addend: 0x0, symName: __ZN19unit_test_framework11TestFailureD1Ev, symObjAddr: 0x740C, symBinAddr: 0x10001216C, symSize: 0x2C }
  - { offsetInCU: 0xFD95, offset: 0x26D98, size: 0x8, addend: 0x0, symName: __ZNSt3__119basic_ostringstreamIcNS_11char_traitsIcEENS_9allocatorIcEEED1Ev, symObjAddr: 0x7438, symBinAddr: 0x100012198, symSize: 0x40 }
  - { offsetInCU: 0xFDC1, offset: 0x26DC4, size: 0x8, addend: 0x0, symName: __ZN19unit_test_framework10Assertions18safe_equals_helperIA6_cNSt3__112basic_stringIcNS3_11char_traitsIcEENS3_9allocatorIcEEEEEEbRKT_RKT0_, symObjAddr: 0x7478, symBinAddr: 0x1000121D8, symSize: 0x30 }
  - { offsetInCU: 0xFE06, offset: 0x26E09, size: 0x8, addend: 0x0, symName: __ZNSt3__19basic_iosIcNS_11char_traitsIcEEEC2B8ue170006Ev, symObjAddr: 0x75AC, symBinAddr: 0x1000122B4, symSize: 0x44 }
  - { offsetInCU: 0xFE2E, offset: 0x26E31, size: 0x8, addend: 0x0, symName: __ZNSt3__113basic_ostreamIcNS_11char_traitsIcEEEC2B8ue170006EPNS_15basic_streambufIcS2_EE, symObjAddr: 0x75F0, symBinAddr: 0x1000122F8, symSize: 0x60 }
  - { offsetInCU: 0xFE70, offset: 0x26E73, size: 0x8, addend: 0x0, symName: __ZNSt3__115basic_stringbufIcNS_11char_traitsIcEENS_9allocatorIcEEEC1B8ue170006Ej, symObjAddr: 0x7650, symBinAddr: 0x100012358, symSize: 0x34 }
  - { offsetInCU: 0xFEA7, offset: 0x26EAA, size: 0x8, addend: 0x0, symName: __ZNSt3__18ios_baseC2B8ue170006Ev, symObjAddr: 0x7684, symBinAddr: 0x10001238C, symSize: 0x24 }
  - { offsetInCU: 0xFED0, offset: 0x26ED3, size: 0x8, addend: 0x0, symName: __ZNSt3__19basic_iosIcNS_11char_traitsIcEEE4initB8ue170006EPNS_15basic_streambufIcS2_EE, symObjAddr: 0x76A8, symBinAddr: 0x1000123B0, symSize: 0x44 }
  - { offsetInCU: 0xFF06, offset: 0x26F09, size: 0x8, addend: 0x0, symName: __ZNSt3__115basic_stringbufIcNS_11char_traitsIcEENS_9allocatorIcEEEC2B8ue170006Ej, symObjAddr: 0x76F4, symBinAddr: 0x1000123F4, symSize: 0x60 }
  - { offsetInCU: 0xFF42, offset: 0x26F45, size: 0x8, addend: 0x0, symName: __ZN19unit_test_framework10Diagnostic12print_helperILm6EEERNSt3__113basic_ostreamIcNS2_11char_traitsIcEEEES7_RAT__Kcii, symObjAddr: 0x7754, symBinAddr: 0x100012454, symSize: 0xA4 }
  - { offsetInCU: 0xFFB4, offset: 0x26FB7, size: 0x8, addend: 0x0, symName: __ZN19unit_test_framework10Diagnostic21print_sequence_helperIA6_cEERDTcl5printfp_cmdeclsr3stdE5beginfp0_Edeclsr3stdE3endfp0_EEERNSt3__113basic_ostreamIcNS5_11char_traitsIcEEEERKT_, symObjAddr: 0x77F8, symBinAddr: 0x1000124F8, symSize: 0x10C }
  - { offsetInCU: 0xFFFC, offset: 0x26FFF, size: 0x8, addend: 0x0, symName: __ZN19unit_test_framework10Diagnostic5printIcEERNSt3__113basic_ostreamIcNS2_11char_traitsIcEEEES7_RKT_, symObjAddr: 0x7930, symBinAddr: 0x100012630, symSize: 0x34 }
  - { offsetInCU: 0x1003B, offset: 0x2703E, size: 0x8, addend: 0x0, symName: __ZN19unit_test_framework10Diagnostic12print_helperIcEERDTlsfp_fp0_ERNSt3__113basic_ostreamIcNS4_11char_traitsIcEEEERKT_ii, symObjAddr: 0x7964, symBinAddr: 0x100012664, symSize: 0x38 }
  - { offsetInCU: 0x100A4, offset: 0x270A7, size: 0x8, addend: 0x0, symName: __ZN19unit_test_framework10Diagnostic12print_helperINSt3__112basic_stringIcNS2_11char_traitsIcEENS2_9allocatorIcEEEEEERDTlsfp_fp0_ERNS2_13basic_ostreamIcS5_EERKT_ii, symObjAddr: 0x82E8, symBinAddr: 0x1000126D0, symSize: 0x34 }
  - { offsetInCU: 0x100F4, offset: 0x270F7, size: 0x8, addend: 0x0, symName: __ZN19unit_test_framework11TestFailureC2ENSt3__112basic_stringIcNS1_11char_traitsIcEENS1_9allocatorIcEEEEiPKc, symObjAddr: 0x8368, symBinAddr: 0x100012704, symSize: 0x4C }
  - { offsetInCU: 0x10147, offset: 0x2714A, size: 0x8, addend: 0x0, symName: __ZN19unit_test_framework11TestFailureD2Ev, symObjAddr: 0x83B4, symBinAddr: 0x100012750, symSize: 0x2C }
  - { offsetInCU: 0x10171, offset: 0x27174, size: 0x8, addend: 0x0, symName: __ZNSt3__119basic_ostringstreamIcNS_11char_traitsIcEENS_9allocatorIcEEED2Ev, symObjAddr: 0x83E0, symBinAddr: 0x10001277C, symSize: 0x64 }
  - { offsetInCU: 0x101A9, offset: 0x271AC, size: 0x8, addend: 0x0, symName: __ZTv0_n24_NSt3__119basic_ostringstreamIcNS_11char_traitsIcEENS_9allocatorIcEEED1Ev, symObjAddr: 0x8444, symBinAddr: 0x1000127E0, symSize: 0x28 }
  - { offsetInCU: 0x101C5, offset: 0x271C8, size: 0x8, addend: 0x0, symName: __ZNSt3__115basic_stringbufIcNS_11char_traitsIcEENS_9allocatorIcEEED1Ev, symObjAddr: 0x846C, symBinAddr: 0x100012808, symSize: 0x2C }
  - { offsetInCU: 0x101F1, offset: 0x271F4, size: 0x8, addend: 0x0, symName: __ZNSt3__115basic_stringbufIcNS_11char_traitsIcEENS_9allocatorIcEEED2Ev, symObjAddr: 0x8498, symBinAddr: 0x100012834, symSize: 0x48 }
  - { offsetInCU: 0x1021D, offset: 0x27220, size: 0x8, addend: 0x0, symName: __ZN19unit_test_framework10Assertions11safe_equalsIRA4_KcRKNSt3__112basic_stringIcNS5_11char_traitsIcEENS5_9allocatorIcEEEEvE6equalsES4_SD_, symObjAddr: 0x84E0, symBinAddr: 0x10001287C, symSize: 0x30 }
  - { offsetInCU: 0x10250, offset: 0x27253, size: 0x8, addend: 0x0, symName: __ZN19unit_test_framework10Diagnostic5printIA4_cEERNSt3__113basic_ostreamIcNS3_11char_traitsIcEEEES8_RKT_, symObjAddr: 0x8510, symBinAddr: 0x1000128AC, symSize: 0x34 }
  - { offsetInCU: 0x1028A, offset: 0x2728D, size: 0x8, addend: 0x0, symName: __ZN19unit_test_framework10Assertions18safe_equals_helperIA4_cNSt3__112basic_stringIcNS3_11char_traitsIcEENS3_9allocatorIcEEEEEEbRKT_RKT0_, symObjAddr: 0x8544, symBinAddr: 0x1000128E0, symSize: 0x30 }
  - { offsetInCU: 0x102D4, offset: 0x272D7, size: 0x8, addend: 0x0, symName: __ZN19unit_test_framework10Diagnostic12print_helperILm4EEERNSt3__113basic_ostreamIcNS2_11char_traitsIcEEEES7_RAT__Kcii, symObjAddr: 0x8574, symBinAddr: 0x100012910, symSize: 0xA4 }
  - { offsetInCU: 0x10346, offset: 0x27349, size: 0x8, addend: 0x0, symName: __ZN19unit_test_framework10Diagnostic21print_sequence_helperIA4_cEERDTcl5printfp_cmdeclsr3stdE5beginfp0_Edeclsr3stdE3endfp0_EEERNSt3__113basic_ostreamIcNS5_11char_traitsIcEEEERKT_, symObjAddr: 0x8618, symBinAddr: 0x1000129B4, symSize: 0x10C }
  - { offsetInCU: 0x103A4, offset: 0x273A7, size: 0x8, addend: 0x0, symName: __ZN19unit_test_framework10Assertions12assert_equalIRA1_KcRKNSt3__112basic_stringIcNS5_11char_traitsIcEENS5_9allocatorIcEEEEEEvOT_OT0_iPS2_, symObjAddr: 0x8750, symBinAddr: 0x100012AEC, symSize: 0x174 }
  - { offsetInCU: 0x10417, offset: 0x2741A, size: 0x8, addend: 0x0, symName: __ZN19unit_test_framework10Assertions11safe_equalsIRA1_KcRKNSt3__112basic_stringIcNS5_11char_traitsIcEENS5_9allocatorIcEEEEvE6equalsES4_SD_, symObjAddr: 0x88C4, symBinAddr: 0x100012C60, symSize: 0x30 }
  - { offsetInCU: 0x1044A, offset: 0x2744D, size: 0x8, addend: 0x0, symName: __ZN19unit_test_framework10Diagnostic5printIA1_cEERNSt3__113basic_ostreamIcNS3_11char_traitsIcEEEES8_RKT_, symObjAddr: 0x88F4, symBinAddr: 0x100012C90, symSize: 0x34 }
  - { offsetInCU: 0x10484, offset: 0x27487, size: 0x8, addend: 0x0, symName: __ZN19unit_test_framework10Assertions18safe_equals_helperIA1_cNSt3__112basic_stringIcNS3_11char_traitsIcEENS3_9allocatorIcEEEEEEbRKT_RKT0_, symObjAddr: 0x8928, symBinAddr: 0x100012CC4, symSize: 0x30 }
  - { offsetInCU: 0x104CE, offset: 0x274D1, size: 0x8, addend: 0x0, symName: __ZN19unit_test_framework10Diagnostic12print_helperILm1EEERNSt3__113basic_ostreamIcNS2_11char_traitsIcEEEES7_RAT__Kcii, symObjAddr: 0x8958, symBinAddr: 0x100012CF4, symSize: 0xA4 }
  - { offsetInCU: 0x10540, offset: 0x27543, size: 0x8, addend: 0x0, symName: __ZN19unit_test_framework10Diagnostic21print_sequence_helperIA1_cEERDTcl5printfp_cmdeclsr3stdE5beginfp0_Edeclsr3stdE3endfp0_EEERNSt3__113basic_ostreamIcNS5_11char_traitsIcEEEERKT_, symObjAddr: 0x89FC, symBinAddr: 0x100012D98, symSize: 0x10C }
  - { offsetInCU: 0x10588, offset: 0x2758B, size: 0x8, addend: 0x0, symName: __ZN19unit_test_framework10Assertions11assert_trueEbiPKc, symObjAddr: 0x8B34, symBinAddr: 0x100012ED0, symSize: 0x148 }
  - { offsetInCU: 0x105E4, offset: 0x275E7, size: 0x8, addend: 0x0, symName: __ZN19unit_test_framework10Assertions12assert_equalIR4SuitS2_EEvOT_OT0_iPKc, symObjAddr: 0x8C7C, symBinAddr: 0x100013018, symSize: 0x174 }
  - { offsetInCU: 0x10661, offset: 0x27664, size: 0x8, addend: 0x0, symName: __ZN19unit_test_framework10Assertions11safe_equalsIR4SuitS2_vE6equalsES3_RKS2_, symObjAddr: 0x8DF0, symBinAddr: 0x10001318C, symSize: 0x30 }
  - { offsetInCU: 0x10694, offset: 0x27697, size: 0x8, addend: 0x0, symName: __ZN19unit_test_framework10Diagnostic5printI4SuitEERNSt3__113basic_ostreamIcNS3_11char_traitsIcEEEES8_RKT_, symObjAddr: 0x8E20, symBinAddr: 0x1000131BC, symSize: 0x34 }
  - { offsetInCU: 0x106CE, offset: 0x276D1, size: 0x8, addend: 0x0, symName: __ZN19unit_test_framework10Assertions18safe_equals_helperI4SuitS2_EEbRKT_RKT0_, symObjAddr: 0x8E54, symBinAddr: 0x1000131F0, symSize: 0x30 }
  - { offsetInCU: 0x10713, offset: 0x27716, size: 0x8, addend: 0x0, symName: __ZN19unit_test_framework10Diagnostic12print_helperI4SuitEERDTlsfp_fp0_ERNSt3__113basic_ostreamIcNS5_11char_traitsIcEEEERKT_ii, symObjAddr: 0x8E84, symBinAddr: 0x100013220, symSize: 0x38 }
  - { offsetInCU: 0x10763, offset: 0x27766, size: 0x8, addend: 0x0, symName: __ZN19unit_test_framework10Assertions12assert_falseEbiPKc, symObjAddr: 0x8EBC, symBinAddr: 0x100013258, symSize: 0x148 }
  - { offsetInCU: 0x107C4, offset: 0x277C7, size: 0x8, addend: 0x0, symName: __ZN19unit_test_framework10Assertions12assert_equalIR4CardS2_EEvOT_OT0_iPKc, symObjAddr: 0x9004, symBinAddr: 0x1000133A0, symSize: 0x174 }
  - { offsetInCU: 0x1083C, offset: 0x2783F, size: 0x8, addend: 0x0, symName: __ZN19unit_test_framework10Assertions11safe_equalsIR4CardS2_vE6equalsES3_RKS2_, symObjAddr: 0x9178, symBinAddr: 0x100013514, symSize: 0x30 }
  - { offsetInCU: 0x1086F, offset: 0x27872, size: 0x8, addend: 0x0, symName: __ZN19unit_test_framework10Diagnostic5printI4CardEERNSt3__113basic_ostreamIcNS3_11char_traitsIcEEEES8_RKT_, symObjAddr: 0x91A8, symBinAddr: 0x100013544, symSize: 0x34 }
  - { offsetInCU: 0x108A9, offset: 0x278AC, size: 0x8, addend: 0x0, symName: __ZN19unit_test_framework10Assertions18safe_equals_helperI4CardS2_EEbRKT_RKT0_, symObjAddr: 0x91DC, symBinAddr: 0x100013578, symSize: 0x30 }
  - { offsetInCU: 0x108EE, offset: 0x278F1, size: 0x8, addend: 0x0, symName: __ZN19unit_test_framework10Diagnostic12print_helperI4CardEERDTlsfp_fp0_ERNSt3__113basic_ostreamIcNS5_11char_traitsIcEEEERKT_ii, symObjAddr: 0x920C, symBinAddr: 0x1000135A8, symSize: 0x34 }
  - { offsetInCU: 0x1093E, offset: 0x27941, size: 0x8, addend: 0x0, symName: __ZN19unit_test_framework9TestSuiteC1Ev, symObjAddr: 0x9240, symBinAddr: 0x1000135DC, symSize: 0x2C }
  - { offsetInCU: 0x10966, offset: 0x27969, size: 0x8, addend: 0x0, symName: __ZN19unit_test_framework9TestSuiteC2Ev, symObjAddr: 0x926C, symBinAddr: 0x100013608, symSize: 0x68 }
  - { offsetInCU: 0x109D1, offset: 0x279D4, size: 0x8, addend: 0x0, symName: __ZNSt3__13mapINS_12basic_stringIcNS_11char_traitsIcEENS_9allocatorIcEEEEN19unit_test_framework8TestCaseENS_4lessIS6_EENS4_INS_4pairIKS6_S8_EEEEEC1B8ue170006Ev, symObjAddr: 0x92D4, symBinAddr: 0x100013670, symSize: 0x2C }
  - { offsetInCU: 0x10A03, offset: 0x27A06, size: 0x8, addend: 0x0, symName: __ZZN19unit_test_framework9TestSuiteC1EvENKUlvE_cvPFvvEEv, symObjAddr: 0x9300, symBinAddr: 0x10001369C, symSize: 0x18 }
  - { offsetInCU: 0x10A2F, offset: 0x27A32, size: 0x8, addend: 0x0, symName: __ZNSt3__13mapINS_12basic_stringIcNS_11char_traitsIcEENS_9allocatorIcEEEEN19unit_test_framework8TestCaseENS_4lessIS6_EENS4_INS_4pairIKS6_S8_EEEEED1B8ue170006Ev, symObjAddr: 0x9318, symBinAddr: 0x1000136B4, symSize: 0x2C }
  - { offsetInCU: 0x10A57, offset: 0x27A5A, size: 0x8, addend: 0x0, symName: __ZNSt3__13mapINS_12basic_stringIcNS_11char_traitsIcEENS_9allocatorIcEEEEN19unit_test_framework8TestCaseENS_4lessIS6_EENS4_INS_4pairIKS6_S8_EEEEEC2B8ue170006Ev, symObjAddr: 0x9344, symBinAddr: 0x1000136E0, symSize: 0x40 }
  - { offsetInCU: 0x10A7F, offset: 0x27A82, size: 0x8, addend: 0x0, symName: __ZNSt3__119__map_value_compareINS_12basic_stringIcNS_11char_traitsIcEENS_9allocatorIcEEEENS_12__value_typeIS6_N19unit_test_framework8TestCaseEEENS_4lessIS6_EELb1EEC1B8ue170006ESC_, symObjAddr: 0x9384, symBinAddr: 0x100013720, symSize: 0x2C }
  - { offsetInCU: 0x10AB6, offset: 0x27AB9, size: 0x8, addend: 0x0, symName: __ZNSt3__16__treeINS_12__value_typeINS_12basic_stringIcNS_11char_traitsIcEENS_9allocatorIcEEEEN19unit_test_framework8TestCaseEEENS_19__map_value_compareIS7_SA_NS_4lessIS7_EELb1EEENS5_ISA_EEEC1ERKSE_, symObjAddr: 0x93B0, symBinAddr: 0x10001374C, symSize: 0x34 }
  - { offsetInCU: 0x10AF0, offset: 0x27AF3, size: 0x8, addend: 0x0, symName: __ZNSt3__119__map_value_compareINS_12basic_stringIcNS_11char_traitsIcEENS_9allocatorIcEEEENS_12__value_typeIS6_N19unit_test_framework8TestCaseEEENS_4lessIS6_EELb1EEC2B8ue170006ESC_, symObjAddr: 0x93E4, symBinAddr: 0x100013780, symSize: 0x14 }
  - { offsetInCU: 0x10B28, offset: 0x27B2B, size: 0x8, addend: 0x0, symName: __ZNSt3__16__treeINS_12__value_typeINS_12basic_stringIcNS_11char_traitsIcEENS_9allocatorIcEEEEN19unit_test_framework8TestCaseEEENS_19__map_value_compareIS7_SA_NS_4lessIS7_EELb1EEENS5_ISA_EEEC2ERKSE_, symObjAddr: 0x93F8, symBinAddr: 0x100013794, symSize: 0x7C }
  - { offsetInCU: 0x10B62, offset: 0x27B65, size: 0x8, addend: 0x0, symName: __ZNSt3__117__compressed_pairINS_15__tree_end_nodeIPNS_16__tree_node_baseIPvEEEENS_9allocatorINS_11__tree_nodeINS_12__value_typeINS_12basic_stringIcNS_11char_traitsIcEENS7_IcEEEEN19unit_test_framework8TestCaseEEES3_EEEEEC1B8ue170006ILb1EvEEv, symObjAddr: 0x9474, symBinAddr: 0x100013810, symSize: 0x2C }
  - { offsetInCU: 0x10B9A, offset: 0x27B9D, size: 0x8, addend: 0x0, symName: __ZNSt3__117__compressed_pairImNS_19__map_value_compareINS_12basic_stringIcNS_11char_traitsIcEENS_9allocatorIcEEEENS_12__value_typeIS7_N19unit_test_framework8TestCaseEEENS_4lessIS7_EELb1EEEEC1B8ue170006IiRKSE_EEOT_OT0_, symObjAddr: 0x94A0, symBinAddr: 0x10001383C, symSize: 0x3C }
  - { offsetInCU: 0x10BF0, offset: 0x27BF3, size: 0x8, addend: 0x0, symName: __ZNSt3__117__compressed_pairINS_15__tree_end_nodeIPNS_16__tree_node_baseIPvEEEENS_9allocatorINS_11__tree_nodeINS_12__value_typeINS_12basic_stringIcNS_11char_traitsIcEENS7_IcEEEEN19unit_test_framework8TestCaseEEES3_EEEEEC2B8ue170006ILb1EvEEv, symObjAddr: 0x94DC, symBinAddr: 0x100013878, symSize: 0x34 }
  - { offsetInCU: 0x10C23, offset: 0x27C26, size: 0x8, addend: 0x0, symName: __ZNSt3__122__compressed_pair_elemINS_15__tree_end_nodeIPNS_16__tree_node_baseIPvEEEELi0ELb0EEC2B8ue170006ENS_16__value_init_tagE, symObjAddr: 0x9510, symBinAddr: 0x1000138AC, symSize: 0x2C }
  - { offsetInCU: 0x10C56, offset: 0x27C59, size: 0x8, addend: 0x0, symName: __ZNSt3__122__compressed_pair_elemINS_9allocatorINS_11__tree_nodeINS_12__value_typeINS_12basic_stringIcNS_11char_traitsIcEENS1_IcEEEEN19unit_test_framework8TestCaseEEEPvEEEELi1ELb1EEC2B8ue170006ENS_16__value_init_tagE, symObjAddr: 0x953C, symBinAddr: 0x1000138D8, symSize: 0x2C }
  - { offsetInCU: 0x10C89, offset: 0x27C8C, size: 0x8, addend: 0x0, symName: __ZNSt3__115__tree_end_nodeIPNS_16__tree_node_baseIPvEEEC1B8ue170006Ev, symObjAddr: 0x9568, symBinAddr: 0x100013904, symSize: 0x2C }
  - { offsetInCU: 0x10CB1, offset: 0x27CB4, size: 0x8, addend: 0x0, symName: __ZNSt3__115__tree_end_nodeIPNS_16__tree_node_baseIPvEEEC2B8ue170006Ev, symObjAddr: 0x9594, symBinAddr: 0x100013930, symSize: 0x18 }
  - { offsetInCU: 0x10CDA, offset: 0x27CDD, size: 0x8, addend: 0x0, symName: __ZNSt3__19allocatorINS_11__tree_nodeINS_12__value_typeINS_12basic_stringIcNS_11char_traitsIcEENS0_IcEEEEN19unit_test_framework8TestCaseEEEPvEEEC2B8ue170006Ev, symObjAddr: 0x95AC, symBinAddr: 0x100013948, symSize: 0x2C }
  - { offsetInCU: 0x10D02, offset: 0x27D05, size: 0x8, addend: 0x0, symName: __ZNSt3__116__non_trivial_ifILb1ENS_9allocatorINS_11__tree_nodeINS_12__value_typeINS_12basic_stringIcNS_11char_traitsIcEENS1_IcEEEEN19unit_test_framework8TestCaseEEEPvEEEEEC2B8ue170006Ev, symObjAddr: 0x95D8, symBinAddr: 0x100013974, symSize: 0x14 }
  - { offsetInCU: 0x10D2B, offset: 0x27D2E, size: 0x8, addend: 0x0, symName: __ZNSt3__117__compressed_pairImNS_19__map_value_compareINS_12basic_stringIcNS_11char_traitsIcEENS_9allocatorIcEEEENS_12__value_typeIS7_N19unit_test_framework8TestCaseEEENS_4lessIS7_EELb1EEEEC2B8ue170006IiRKSE_EEOT_OT0_, symObjAddr: 0x95EC, symBinAddr: 0x100013988, symSize: 0x44 }
  - { offsetInCU: 0x10D81, offset: 0x27D84, size: 0x8, addend: 0x0, symName: __ZNSt3__122__compressed_pair_elemImLi0ELb0EEC2B8ue170006IivEEOT_, symObjAddr: 0x9630, symBinAddr: 0x1000139CC, symSize: 0x24 }
  - { offsetInCU: 0x10DC2, offset: 0x27DC5, size: 0x8, addend: 0x0, symName: __ZNSt3__122__compressed_pair_elemINS_19__map_value_compareINS_12basic_stringIcNS_11char_traitsIcEENS_9allocatorIcEEEENS_12__value_typeIS7_N19unit_test_framework8TestCaseEEENS_4lessIS7_EELb1EEELi1ELb1EEC2B8ue170006IRKSE_vEEOT_, symObjAddr: 0x9654, symBinAddr: 0x1000139F0, symSize: 0x18 }
  - { offsetInCU: 0x10E03, offset: 0x27E06, size: 0x8, addend: 0x0, symName: __ZZN19unit_test_framework9TestSuiteC1EvENUlvE_8__invokeEv, symObjAddr: 0x966C, symBinAddr: 0x100013A08, symSize: 0x20 }
  - { offsetInCU: 0x10E1E, offset: 0x27E21, size: 0x8, addend: 0x0, symName: __ZZN19unit_test_framework9TestSuiteC1EvENKUlvE_clEv, symObjAddr: 0x968C, symBinAddr: 0x100013A28, symSize: 0x50 }
  - { offsetInCU: 0x10E46, offset: 0x27E49, size: 0x8, addend: 0x0, symName: __ZNSt3__113basic_ostreamIcNS_11char_traitsIcEEElsB8ue170006EPFRS3_S4_E, symObjAddr: 0x96DC, symBinAddr: 0x100013A78, symSize: 0x2C }
  - { offsetInCU: 0x10E78, offset: 0x27E7B, size: 0x8, addend: 0x0, symName: __ZNSt3__13mapINS_12basic_stringIcNS_11char_traitsIcEENS_9allocatorIcEEEEN19unit_test_framework8TestCaseENS_4lessIS6_EENS4_INS_4pairIKS6_S8_EEEEED2B8ue170006Ev, symObjAddr: 0x9760, symBinAddr: 0x100013AFC, symSize: 0x2C }
  - { offsetInCU: 0x10EA0, offset: 0x27EA3, size: 0x8, addend: 0x0, symName: __ZNSt3__16__treeINS_12__value_typeINS_12basic_stringIcNS_11char_traitsIcEENS_9allocatorIcEEEEN19unit_test_framework8TestCaseEEENS_19__map_value_compareIS7_SA_NS_4lessIS7_EELb1EEENS5_ISA_EEED1Ev, symObjAddr: 0x978C, symBinAddr: 0x100013B28, symSize: 0x2C }
  - { offsetInCU: 0x10ECB, offset: 0x27ECE, size: 0x8, addend: 0x0, symName: __ZNSt3__16__treeINS_12__value_typeINS_12basic_stringIcNS_11char_traitsIcEENS_9allocatorIcEEEEN19unit_test_framework8TestCaseEEENS_19__map_value_compareIS7_SA_NS_4lessIS7_EELb1EEENS5_ISA_EEED2Ev, symObjAddr: 0x97B8, symBinAddr: 0x100013B54, symSize: 0x38 }
  - { offsetInCU: 0x10EF6, offset: 0x27EF9, size: 0x8, addend: 0x0, symName: __ZNSt3__16__treeINS_12__value_typeINS_12basic_stringIcNS_11char_traitsIcEENS_9allocatorIcEEEEN19unit_test_framework8TestCaseEEENS_19__map_value_compareIS7_SA_NS_4lessIS7_EELb1EEENS5_ISA_EEE7destroyEPNS_11__tree_nodeISA_PvEE, symObjAddr: 0x97F0, symBinAddr: 0x100013B8C, symSize: 0xA8 }
  - { offsetInCU: 0x10F46, offset: 0x27F49, size: 0x8, addend: 0x0, symName: __ZN19unit_test_framework11SetCompleteC1ERb, symObjAddr: 0x9898, symBinAddr: 0x100013C34, symSize: 0x34 }
  - { offsetInCU: 0x10F7C, offset: 0x27F7F, size: 0x8, addend: 0x0, symName: __ZNSt3__16vectorINS_12basic_stringIcNS_11char_traitsIcEENS_9allocatorIcEEEENS4_IS6_EEEC1B8ue170006Ev, symObjAddr: 0x98CC, symBinAddr: 0x100013C68, symSize: 0x2C }
  - { offsetInCU: 0x10FA4, offset: 0x27FA7, size: 0x8, addend: 0x0, symName: __ZN19unit_test_framework9TestSuite21get_test_names_to_runEiPPc, symObjAddr: 0x98F8, symBinAddr: 0x100013C94, symSize: 0x630 }
  - { offsetInCU: 0x11034, offset: 0x28037, size: 0x8, addend: 0x0, symName: __ZNSt3__16vectorINS_12basic_stringIcNS_11char_traitsIcEENS_9allocatorIcEEEENS4_IS6_EEEaSB8ue170006EOS8_, symObjAddr: 0x9F28, symBinAddr: 0x1000142C4, symSize: 0x34 }
  - { offsetInCU: 0x1106A, offset: 0x2806D, size: 0x8, addend: 0x0, symName: __ZNSt3__16vectorINS_12basic_stringIcNS_11char_traitsIcEENS_9allocatorIcEEEENS4_IS6_EEED1B8ue170006Ev, symObjAddr: 0x9F5C, symBinAddr: 0x1000142F8, symSize: 0x2C }
  - { offsetInCU: 0x11092, offset: 0x28095, size: 0x8, addend: 0x0, symName: __ZNSt3__16vectorINS_12basic_stringIcNS_11char_traitsIcEENS_9allocatorIcEEEENS4_IS6_EEE5beginB8ue170006Ev, symObjAddr: 0x9F88, symBinAddr: 0x100014324, symSize: 0x30 }
  - { offsetInCU: 0x110B9, offset: 0x280BC, size: 0x8, addend: 0x0, symName: __ZNSt3__16vectorINS_12basic_stringIcNS_11char_traitsIcEENS_9allocatorIcEEEENS4_IS6_EEE3endB8ue170006Ev, symObjAddr: 0x9FB8, symBinAddr: 0x100014354, symSize: 0x30 }
  - { offsetInCU: 0x110E0, offset: 0x280E3, size: 0x8, addend: 0x0, symName: __ZNKSt3__111__wrap_iterIPNS_12basic_stringIcNS_11char_traitsIcEENS_9allocatorIcEEEEEdeB8ue170006Ev, symObjAddr: 0xA01C, symBinAddr: 0x1000143B8, symSize: 0x18 }
  - { offsetInCU: 0x11105, offset: 0x28108, size: 0x8, addend: 0x0, symName: __ZNSt3__13mapINS_12basic_stringIcNS_11char_traitsIcEENS_9allocatorIcEEEEN19unit_test_framework8TestCaseENS_4lessIS6_EENS4_INS_4pairIKS6_S8_EEEEE4findB8ue170006ERSC_, symObjAddr: 0xA064, symBinAddr: 0x100014400, symSize: 0x40 }
  - { offsetInCU: 0x11138, offset: 0x2813B, size: 0x8, addend: 0x0, symName: __ZNSt3__111__wrap_iterIPNS_12basic_stringIcNS_11char_traitsIcEENS_9allocatorIcEEEEEppB8ue170006Ev, symObjAddr: 0xA110, symBinAddr: 0x1000144AC, symSize: 0x20 }
  - { offsetInCU: 0x1115D, offset: 0x28160, size: 0x8, addend: 0x0, symName: __ZNSt3__13mapINS_12basic_stringIcNS_11char_traitsIcEENS_9allocatorIcEEEEN19unit_test_framework8TestCaseENS_4lessIS6_EENS4_INS_4pairIKS6_S8_EEEEE2atERSC_, symObjAddr: 0xA130, symBinAddr: 0x1000144CC, symSize: 0x6C }
  - { offsetInCU: 0x111B1, offset: 0x281B4, size: 0x8, addend: 0x0, symName: __ZN19unit_test_framework8TestCase3runEb, symObjAddr: 0xA19C, symBinAddr: 0x100014538, symSize: 0x364 }
  - { offsetInCU: 0x11219, offset: 0x2821C, size: 0x8, addend: 0x0, symName: __ZN19unit_test_framework8TestCase5printEb, symObjAddr: 0xA500, symBinAddr: 0x10001489C, symSize: 0x170 }
  - { offsetInCU: 0x1124C, offset: 0x2824F, size: 0x8, addend: 0x0, symName: __ZNSt3__13mapINS_12basic_stringIcNS_11char_traitsIcEENS_9allocatorIcEEEEN19unit_test_framework8TestCaseENS_4lessIS6_EENS4_INS_4pairIKS6_S8_EEEEE5beginB8ue170006Ev, symObjAddr: 0xA734, symBinAddr: 0x100014AD0, symSize: 0x38 }
  - { offsetInCU: 0x11270, offset: 0x28273, size: 0x8, addend: 0x0, symName: __ZNSt3__13mapINS_12basic_stringIcNS_11char_traitsIcEENS_9allocatorIcEEEEN19unit_test_framework8TestCaseENS_4lessIS6_EENS4_INS_4pairIKS6_S8_EEEEE3endB8ue170006Ev, symObjAddr: 0xA76C, symBinAddr: 0x100014B08, symSize: 0x38 }
  - { offsetInCU: 0x11294, offset: 0x28297, size: 0x8, addend: 0x0, symName: __ZNKSt3__16vectorINS_12basic_stringIcNS_11char_traitsIcEENS_9allocatorIcEEEENS4_IS6_EEE4sizeB8ue170006Ev, symObjAddr: 0xA868, symBinAddr: 0x100014C04, symSize: 0x28 }
  - { offsetInCU: 0x112B9, offset: 0x282BC, size: 0x8, addend: 0x0, symName: __ZN19unit_test_framework11SetCompleteD1Ev, symObjAddr: 0xA890, symBinAddr: 0x100014C2C, symSize: 0x2C }
  - { offsetInCU: 0x112E1, offset: 0x282E4, size: 0x8, addend: 0x0, symName: __ZN19unit_test_framework11SetCompleteC2ERb, symObjAddr: 0xA8BC, symBinAddr: 0x100014C58, symSize: 0x2C }
  - { offsetInCU: 0x11318, offset: 0x2831B, size: 0x8, addend: 0x0, symName: __ZNSt3__16vectorINS_12basic_stringIcNS_11char_traitsIcEENS_9allocatorIcEEEENS4_IS6_EEEC2B8ue170006Ev, symObjAddr: 0xA8E8, symBinAddr: 0x100014C84, symSize: 0x4C }
  - { offsetInCU: 0x11345, offset: 0x28348, size: 0x8, addend: 0x0, symName: __ZNSt3__117__compressed_pairIPNS_12basic_stringIcNS_11char_traitsIcEENS_9allocatorIcEEEENS4_IS6_EEEC1B8ue170006IDnNS_18__default_init_tagEEEOT_OT0_, symObjAddr: 0xA934, symBinAddr: 0x100014CD0, symSize: 0x3C }
  - { offsetInCU: 0x1139B, offset: 0x2839E, size: 0x8, addend: 0x0, symName: __ZNSt3__117__compressed_pairIPNS_12basic_stringIcNS_11char_traitsIcEENS_9allocatorIcEEEENS4_IS6_EEEC2B8ue170006IDnNS_18__default_init_tagEEEOT_OT0_, symObjAddr: 0xA970, symBinAddr: 0x100014D0C, symSize: 0x40 }
  - { offsetInCU: 0x113F1, offset: 0x283F4, size: 0x8, addend: 0x0, symName: __ZNSt3__122__compressed_pair_elemIPNS_12basic_stringIcNS_11char_traitsIcEENS_9allocatorIcEEEELi0ELb0EEC2B8ue170006IDnvEEOT_, symObjAddr: 0xA9B0, symBinAddr: 0x100014D4C, symSize: 0x1C }
  - { offsetInCU: 0x11432, offset: 0x28435, size: 0x8, addend: 0x0, symName: __ZNSt3__122__compressed_pair_elemINS_9allocatorINS_12basic_stringIcNS_11char_traitsIcEENS1_IcEEEEEELi1ELb1EEC2B8ue170006ENS_18__default_init_tagE, symObjAddr: 0xA9CC, symBinAddr: 0x100014D68, symSize: 0x2C }
  - { offsetInCU: 0x11465, offset: 0x28468, size: 0x8, addend: 0x0, symName: __ZNSt3__19allocatorINS_12basic_stringIcNS_11char_traitsIcEENS0_IcEEEEEC2B8ue170006Ev, symObjAddr: 0xA9F8, symBinAddr: 0x100014D94, symSize: 0x2C }
  - { offsetInCU: 0x1148D, offset: 0x28490, size: 0x8, addend: 0x0, symName: __ZNSt3__116__non_trivial_ifILb1ENS_9allocatorINS_12basic_stringIcNS_11char_traitsIcEENS1_IcEEEEEEEC2B8ue170006Ev, symObjAddr: 0xAA24, symBinAddr: 0x100014DC0, symSize: 0x14 }
  - { offsetInCU: 0x114B6, offset: 0x284B9, size: 0x8, addend: 0x0, symName: __ZN19unit_test_framework9TestSuite16print_test_namesERNSt3__113basic_ostreamIcNS1_11char_traitsIcEEEE, symObjAddr: 0xAA38, symBinAddr: 0x100014DD4, symSize: 0x8C }
  - { offsetInCU: 0x11540, offset: 0x28543, size: 0x8, addend: 0x0, symName: __ZN19unit_test_framework9ExitSuiteC1Ei, symObjAddr: 0xAAEC, symBinAddr: 0x100014E88, symSize: 0x34 }
  - { offsetInCU: 0x11576, offset: 0x28579, size: 0x8, addend: 0x0, symName: __ZN19unit_test_framework9ExitSuiteD1Ev, symObjAddr: 0xAB20, symBinAddr: 0x100014EBC, symSize: 0x2C }
  - { offsetInCU: 0x115A0, offset: 0x285A3, size: 0x8, addend: 0x0, symName: __ZN19unit_test_framework9TestSuite17enable_quiet_modeEv, symObjAddr: 0xAB4C, symBinAddr: 0x100014EE8, symSize: 0x1C }
  - { offsetInCU: 0x115C5, offset: 0x285C8, size: 0x8, addend: 0x0, symName: __ZNSt3__16vectorINS_12basic_stringIcNS_11char_traitsIcEENS_9allocatorIcEEEENS4_IS6_EEE9push_backB8ue170006EOS6_, symObjAddr: 0xAB68, symBinAddr: 0x100014F04, symSize: 0x6C }
  - { offsetInCU: 0x115FB, offset: 0x285FE, size: 0x8, addend: 0x0, symName: __ZNKSt3__16vectorINS_12basic_stringIcNS_11char_traitsIcEENS_9allocatorIcEEEENS4_IS6_EEE5emptyB8ue170006Ev, symObjAddr: 0xABD4, symBinAddr: 0x100014F70, symSize: 0x28 }
  - { offsetInCU: 0x11620, offset: 0x28623, size: 0x8, addend: 0x0, symName: __ZNKSt3__114__map_iteratorINS_15__tree_iteratorINS_12__value_typeINS_12basic_stringIcNS_11char_traitsIcEENS_9allocatorIcEEEEN19unit_test_framework8TestCaseEEEPNS_11__tree_nodeISB_PvEElEEEdeB8ue170006Ev, symObjAddr: 0xAD88, symBinAddr: 0x100015124, symSize: 0x28 }
  - { offsetInCU: 0x11644, offset: 0x28647, size: 0x8, addend: 0x0, symName: __ZNSt3__114__map_iteratorINS_15__tree_iteratorINS_12__value_typeINS_12basic_stringIcNS_11char_traitsIcEENS_9allocatorIcEEEEN19unit_test_framework8TestCaseEEEPNS_11__tree_nodeISB_PvEElEEEppB8ue170006Ev, symObjAddr: 0xADB0, symBinAddr: 0x10001514C, symSize: 0x2C }
  - { offsetInCU: 0x11668, offset: 0x2866B, size: 0x8, addend: 0x0, symName: __ZNKSt3__115__tree_iteratorINS_12__value_typeINS_12basic_stringIcNS_11char_traitsIcEENS_9allocatorIcEEEEN19unit_test_framework8TestCaseEEEPNS_11__tree_nodeISA_PvEElEptB8ue170006Ev, symObjAddr: 0xAE40, symBinAddr: 0x1000151DC, symSize: 0x2C }
  - { offsetInCU: 0x1168C, offset: 0x2868F, size: 0x8, addend: 0x0, symName: __ZNSt3__114pointer_traitsIPNS_12__value_typeINS_12basic_stringIcNS_11char_traitsIcEENS_9allocatorIcEEEEN19unit_test_framework8TestCaseEEEE10pointer_toB8ue170006ERSA_, symObjAddr: 0xAE6C, symBinAddr: 0x100015208, symSize: 0x14 }
  - { offsetInCU: 0x116AF, offset: 0x286B2, size: 0x8, addend: 0x0, symName: __ZNKSt3__115__tree_iteratorINS_12__value_typeINS_12basic_stringIcNS_11char_traitsIcEENS_9allocatorIcEEEEN19unit_test_framework8TestCaseEEEPNS_11__tree_nodeISA_PvEElE8__get_npB8ue170006Ev, symObjAddr: 0xAE80, symBinAddr: 0x10001521C, symSize: 0x18 }
  - { offsetInCU: 0x116D4, offset: 0x286D7, size: 0x8, addend: 0x0, symName: __ZNSt3__115__tree_iteratorINS_12__value_typeINS_12basic_stringIcNS_11char_traitsIcEENS_9allocatorIcEEEEN19unit_test_framework8TestCaseEEEPNS_11__tree_nodeISA_PvEElEppB8ue170006Ev, symObjAddr: 0xAE98, symBinAddr: 0x100015234, symSize: 0x38 }
  - { offsetInCU: 0x116F8, offset: 0x286FB, size: 0x8, addend: 0x0, symName: __ZN19unit_test_framework9ExitSuiteC2Ei, symObjAddr: 0xAF90, symBinAddr: 0x10001532C, symSize: 0x50 }
  - { offsetInCU: 0x1172E, offset: 0x28731, size: 0x8, addend: 0x0, symName: __ZNSt9exceptionC2B8ue170006Ev, symObjAddr: 0xAFE0, symBinAddr: 0x10001537C, symSize: 0x24 }
  - { offsetInCU: 0x11757, offset: 0x2875A, size: 0x8, addend: 0x0, symName: __ZN19unit_test_framework9ExitSuiteD0Ev, symObjAddr: 0xB004, symBinAddr: 0x1000153A0, symSize: 0x30 }
  - { offsetInCU: 0x11781, offset: 0x28784, size: 0x8, addend: 0x0, symName: __ZN19unit_test_framework9ExitSuiteD2Ev, symObjAddr: 0xB034, symBinAddr: 0x1000153D0, symSize: 0x2C }
  - { offsetInCU: 0x117AB, offset: 0x287AE, size: 0x8, addend: 0x0, symName: __ZNSt3__16vectorINS_12basic_stringIcNS_11char_traitsIcEENS_9allocatorIcEEEENS4_IS6_EEE9__end_capB8ue170006Ev, symObjAddr: 0xB060, symBinAddr: 0x1000153FC, symSize: 0x28 }
  - { offsetInCU: 0x117D4, offset: 0x287D7, size: 0x8, addend: 0x0, symName: __ZNSt3__16vectorINS_12basic_stringIcNS_11char_traitsIcEENS_9allocatorIcEEEENS4_IS6_EEE22__construct_one_at_endB8ue170006IJS6_EEEvDpOT_, symObjAddr: 0xB088, symBinAddr: 0x100015424, symSize: 0x90 }
  - { offsetInCU: 0x11823, offset: 0x28826, size: 0x8, addend: 0x0, symName: __ZNSt3__16vectorINS_12basic_stringIcNS_11char_traitsIcEENS_9allocatorIcEEEENS4_IS6_EEE21__push_back_slow_pathIS6_EEvOT_, symObjAddr: 0xB118, symBinAddr: 0x1000154B4, symSize: 0xD8 }
  - { offsetInCU: 0x11880, offset: 0x28883, size: 0x8, addend: 0x0, symName: __ZNSt3__117__compressed_pairIPNS_12basic_stringIcNS_11char_traitsIcEENS_9allocatorIcEEEENS4_IS6_EEE5firstB8ue170006Ev, symObjAddr: 0xB1F0, symBinAddr: 0x10001558C, symSize: 0x24 }
  - { offsetInCU: 0x118A4, offset: 0x288A7, size: 0x8, addend: 0x0, symName: __ZNSt3__122__compressed_pair_elemIPNS_12basic_stringIcNS_11char_traitsIcEENS_9allocatorIcEEEELi0ELb0EE5__getB8ue170006Ev, symObjAddr: 0xB214, symBinAddr: 0x1000155B0, symSize: 0x14 }
  - { offsetInCU: 0x118E2, offset: 0x288E5, size: 0x8, addend: 0x0, symName: __ZNSt3__16vectorINS_12basic_stringIcNS_11char_traitsIcEENS_9allocatorIcEEEENS4_IS6_EEE21_ConstructTransactionC1B8ue170006ERS8_m, symObjAddr: 0xB228, symBinAddr: 0x1000155C4, symSize: 0x3C }
  - { offsetInCU: 0x11928, offset: 0x2892B, size: 0x8, addend: 0x0, symName: __ZNSt3__116allocator_traitsINS_9allocatorINS_12basic_stringIcNS_11char_traitsIcEENS1_IcEEEEEEE9constructB8ue170006IS6_JS6_EvEEvRS7_PT_DpOT0_, symObjAddr: 0xB264, symBinAddr: 0x100015600, symSize: 0x34 }
  - { offsetInCU: 0x11981, offset: 0x28984, size: 0x8, addend: 0x0, symName: __ZNSt3__16vectorINS_12basic_stringIcNS_11char_traitsIcEENS_9allocatorIcEEEENS4_IS6_EEE7__allocB8ue170006Ev, symObjAddr: 0xB298, symBinAddr: 0x100015634, symSize: 0x28 }
  - { offsetInCU: 0x119A5, offset: 0x289A8, size: 0x8, addend: 0x0, symName: __ZNSt3__16vectorINS_12basic_stringIcNS_11char_traitsIcEENS_9allocatorIcEEEENS4_IS6_EEE21_ConstructTransactionD1B8ue170006Ev, symObjAddr: 0xB2D4, symBinAddr: 0x100015670, symSize: 0x2C }
  - { offsetInCU: 0x119CD, offset: 0x289D0, size: 0x8, addend: 0x0, symName: __ZNSt3__16vectorINS_12basic_stringIcNS_11char_traitsIcEENS_9allocatorIcEEEENS4_IS6_EEE21_ConstructTransactionC2B8ue170006ERS8_m, symObjAddr: 0xB300, symBinAddr: 0x10001569C, symSize: 0x4C }
  - { offsetInCU: 0x11A14, offset: 0x28A17, size: 0x8, addend: 0x0, symName: __ZNSt3__19allocatorINS_12basic_stringIcNS_11char_traitsIcEENS0_IcEEEEE9constructB8ue170006IS5_JS5_EEEvPT_DpOT0_, symObjAddr: 0xB34C, symBinAddr: 0x1000156E8, symSize: 0x30 }
  - { offsetInCU: 0x11A6A, offset: 0x28A6D, size: 0x8, addend: 0x0, symName: __ZNSt3__117__compressed_pairIPNS_12basic_stringIcNS_11char_traitsIcEENS_9allocatorIcEEEENS4_IS6_EEE6secondB8ue170006Ev, symObjAddr: 0xB37C, symBinAddr: 0x100015718, symSize: 0x24 }
  - { offsetInCU: 0x11A8E, offset: 0x28A91, size: 0x8, addend: 0x0, symName: __ZNSt3__122__compressed_pair_elemINS_9allocatorINS_12basic_stringIcNS_11char_traitsIcEENS1_IcEEEEEELi1ELb1EE5__getB8ue170006Ev, symObjAddr: 0xB3A0, symBinAddr: 0x10001573C, symSize: 0x14 }
  - { offsetInCU: 0x11AB3, offset: 0x28AB6, size: 0x8, addend: 0x0, symName: __ZNSt3__16vectorINS_12basic_stringIcNS_11char_traitsIcEENS_9allocatorIcEEEENS4_IS6_EEE21_ConstructTransactionD2B8ue170006Ev, symObjAddr: 0xB3B4, symBinAddr: 0x100015750, symSize: 0x20 }
  - { offsetInCU: 0x11ADC, offset: 0x28ADF, size: 0x8, addend: 0x0, symName: __ZNKSt3__16vectorINS_12basic_stringIcNS_11char_traitsIcEENS_9allocatorIcEEEENS4_IS6_EEE11__recommendB8ue170006Em, symObjAddr: 0xB3D4, symBinAddr: 0x100015770, symSize: 0xB4 }
  - { offsetInCU: 0x11B30, offset: 0x28B33, size: 0x8, addend: 0x0, symName: __ZNSt3__114__split_bufferINS_12basic_stringIcNS_11char_traitsIcEENS_9allocatorIcEEEERNS4_IS6_EEEC1EmmS8_, symObjAddr: 0xB488, symBinAddr: 0x100015824, symSize: 0x44 }
  - { offsetInCU: 0x11B85, offset: 0x28B88, size: 0x8, addend: 0x0, symName: __ZNSt3__114__split_bufferINS_12basic_stringIcNS_11char_traitsIcEENS_9allocatorIcEEEERNS4_IS6_EEED1Ev, symObjAddr: 0xB5DC, symBinAddr: 0x100015978, symSize: 0x2C }
  - { offsetInCU: 0x11BB0, offset: 0x28BB3, size: 0x8, addend: 0x0, symName: __ZNKSt3__16vectorINS_12basic_stringIcNS_11char_traitsIcEENS_9allocatorIcEEEENS4_IS6_EEE8max_sizeEv, symObjAddr: 0xB608, symBinAddr: 0x1000159A4, symSize: 0x60 }
  - { offsetInCU: 0x11BD7, offset: 0x28BDA, size: 0x8, addend: 0x0, symName: __ZNKSt3__16vectorINS_12basic_stringIcNS_11char_traitsIcEENS_9allocatorIcEEEENS4_IS6_EEE20__throw_length_errorB8ue170006Ev, symObjAddr: 0xB668, symBinAddr: 0x100015A04, symSize: 0x1C }
  - { offsetInCU: 0x11BFB, offset: 0x28BFE, size: 0x8, addend: 0x0, symName: __ZNKSt3__16vectorINS_12basic_stringIcNS_11char_traitsIcEENS_9allocatorIcEEEENS4_IS6_EEE8capacityB8ue170006Ev, symObjAddr: 0xB684, symBinAddr: 0x100015A20, symSize: 0x40 }
  - { offsetInCU: 0x11C29, offset: 0x28C2C, size: 0x8, addend: 0x0, symName: __ZNSt3__116allocator_traitsINS_9allocatorINS_12basic_stringIcNS_11char_traitsIcEENS1_IcEEEEEEE8max_sizeB8ue170006IS7_vEEmRKS7_, symObjAddr: 0xB6F0, symBinAddr: 0x100015A60, symSize: 0x24 }
  - { offsetInCU: 0x11C57, offset: 0x28C5A, size: 0x8, addend: 0x0, symName: __ZNKSt3__16vectorINS_12basic_stringIcNS_11char_traitsIcEENS_9allocatorIcEEEENS4_IS6_EEE7__allocB8ue170006Ev, symObjAddr: 0xB714, symBinAddr: 0x100015A84, symSize: 0x28 }
  - { offsetInCU: 0x11C7B, offset: 0x28C7E, size: 0x8, addend: 0x0, symName: __ZNKSt3__19allocatorINS_12basic_stringIcNS_11char_traitsIcEENS0_IcEEEEE8max_sizeB8ue170006Ev, symObjAddr: 0xB750, symBinAddr: 0x100015AAC, symSize: 0x18 }
  - { offsetInCU: 0x11CA0, offset: 0x28CA3, size: 0x8, addend: 0x0, symName: __ZNKSt3__117__compressed_pairIPNS_12basic_stringIcNS_11char_traitsIcEENS_9allocatorIcEEEENS4_IS6_EEE6secondB8ue170006Ev, symObjAddr: 0xB768, symBinAddr: 0x100015AC4, symSize: 0x24 }
  - { offsetInCU: 0x11CC4, offset: 0x28CC7, size: 0x8, addend: 0x0, symName: __ZNKSt3__122__compressed_pair_elemINS_9allocatorINS_12basic_stringIcNS_11char_traitsIcEENS1_IcEEEEEELi1ELb1EE5__getB8ue170006Ev, symObjAddr: 0xB78C, symBinAddr: 0x100015AE8, symSize: 0x14 }
  - { offsetInCU: 0x11CE9, offset: 0x28CEC, size: 0x8, addend: 0x0, symName: __ZNKSt3__16vectorINS_12basic_stringIcNS_11char_traitsIcEENS_9allocatorIcEEEENS4_IS6_EEE9__end_capB8ue170006Ev, symObjAddr: 0xB88C, symBinAddr: 0x100015AFC, symSize: 0x28 }
  - { offsetInCU: 0x11D0D, offset: 0x28D10, size: 0x8, addend: 0x0, symName: __ZNKSt3__117__compressed_pairIPNS_12basic_stringIcNS_11char_traitsIcEENS_9allocatorIcEEEENS4_IS6_EEE5firstB8ue170006Ev, symObjAddr: 0xB8B4, symBinAddr: 0x100015B24, symSize: 0x24 }
  - { offsetInCU: 0x11D31, offset: 0x28D34, size: 0x8, addend: 0x0, symName: __ZNKSt3__122__compressed_pair_elemIPNS_12basic_stringIcNS_11char_traitsIcEENS_9allocatorIcEEEELi0ELb0EE5__getB8ue170006Ev, symObjAddr: 0xB8D8, symBinAddr: 0x100015B48, symSize: 0x14 }
  - { offsetInCU: 0x11D56, offset: 0x28D59, size: 0x8, addend: 0x0, symName: __ZNSt3__114__split_bufferINS_12basic_stringIcNS_11char_traitsIcEENS_9allocatorIcEEEERNS4_IS6_EEEC2EmmS8_, symObjAddr: 0xB940, symBinAddr: 0x100015B5C, symSize: 0xE0 }
  - { offsetInCU: 0x11DC8, offset: 0x28DCB, size: 0x8, addend: 0x0, symName: __ZNSt3__117__compressed_pairIPNS_12basic_stringIcNS_11char_traitsIcEENS_9allocatorIcEEEERNS4_IS6_EEEC1B8ue170006IDnS9_EEOT_OT0_, symObjAddr: 0xBA20, symBinAddr: 0x100015C3C, symSize: 0x3C }
  - { offsetInCU: 0x11E1E, offset: 0x28E21, size: 0x8, addend: 0x0, symName: __ZNSt3__114__split_bufferINS_12basic_stringIcNS_11char_traitsIcEENS_9allocatorIcEEEERNS4_IS6_EEE7__allocB8ue170006Ev, symObjAddr: 0xBA9C, symBinAddr: 0x100015CB8, symSize: 0x28 }
  - { offsetInCU: 0x11E42, offset: 0x28E45, size: 0x8, addend: 0x0, symName: __ZNSt3__114__split_bufferINS_12basic_stringIcNS_11char_traitsIcEENS_9allocatorIcEEEERNS4_IS6_EEE9__end_capB8ue170006Ev, symObjAddr: 0xBAC4, symBinAddr: 0x100015CE0, symSize: 0x28 }
  - { offsetInCU: 0x11E66, offset: 0x28E69, size: 0x8, addend: 0x0, symName: __ZNSt3__117__compressed_pairIPNS_12basic_stringIcNS_11char_traitsIcEENS_9allocatorIcEEEERNS4_IS6_EEEC2B8ue170006IDnS9_EEOT_OT0_, symObjAddr: 0xBAEC, symBinAddr: 0x100015D08, symSize: 0x48 }
  - { offsetInCU: 0x11EBC, offset: 0x28EBF, size: 0x8, addend: 0x0, symName: __ZNSt3__122__compressed_pair_elemIRNS_9allocatorINS_12basic_stringIcNS_11char_traitsIcEENS1_IcEEEEEELi1ELb0EEC2B8ue170006IS8_vEEOT_, symObjAddr: 0xBB34, symBinAddr: 0x100015D50, symSize: 0x20 }
  - { offsetInCU: 0x11EFD, offset: 0x28F00, size: 0x8, addend: 0x0, symName: __ZNSt3__19allocatorINS_12basic_stringIcNS_11char_traitsIcEENS0_IcEEEEE8allocateB8ue170006Em, symObjAddr: 0xBB54, symBinAddr: 0x100015D70, symSize: 0x5C }
  - { offsetInCU: 0x11F2F, offset: 0x28F32, size: 0x8, addend: 0x0, symName: __ZNSt3__117__compressed_pairIPNS_12basic_stringIcNS_11char_traitsIcEENS_9allocatorIcEEEERNS4_IS6_EEE6secondB8ue170006Ev, symObjAddr: 0xBBB0, symBinAddr: 0x100015DCC, symSize: 0x28 }
  - { offsetInCU: 0x11F53, offset: 0x28F56, size: 0x8, addend: 0x0, symName: __ZNSt3__122__compressed_pair_elemIRNS_9allocatorINS_12basic_stringIcNS_11char_traitsIcEENS1_IcEEEEEELi1ELb0EE5__getB8ue170006Ev, symObjAddr: 0xBBD8, symBinAddr: 0x100015DF4, symSize: 0x18 }
  - { offsetInCU: 0x11F78, offset: 0x28F7B, size: 0x8, addend: 0x0, symName: __ZNSt3__117__compressed_pairIPNS_12basic_stringIcNS_11char_traitsIcEENS_9allocatorIcEEEERNS4_IS6_EEE5firstB8ue170006Ev, symObjAddr: 0xBBF0, symBinAddr: 0x100015E0C, symSize: 0x24 }
  - { offsetInCU: 0x11F9C, offset: 0x28F9F, size: 0x8, addend: 0x0, symName: __ZNKSt3__16vectorINS_12basic_stringIcNS_11char_traitsIcEENS_9allocatorIcEEEENS4_IS6_EEE17__annotate_deleteB8ue170006Ev, symObjAddr: 0xBC14, symBinAddr: 0x100015E30, symSize: 0xD4 }
  - { offsetInCU: 0x11FC0, offset: 0x28FC3, size: 0x8, addend: 0x0, symName: __ZNSt3__116reverse_iteratorIPNS_12basic_stringIcNS_11char_traitsIcEENS_9allocatorIcEEEEEC1B8ue170006ES7_, symObjAddr: 0xBE14, symBinAddr: 0x100016030, symSize: 0x34 }
  - { offsetInCU: 0x11FF6, offset: 0x28FF9, size: 0x8, addend: 0x0, symName: __ZNKSt3__116reverse_iteratorIPNS_12basic_stringIcNS_11char_traitsIcEENS_9allocatorIcEEEEE4baseB8ue170006Ev, symObjAddr: 0xBE48, symBinAddr: 0x100016064, symSize: 0x18 }
  - { offsetInCU: 0x1201B, offset: 0x2901E, size: 0x8, addend: 0x0, symName: __ZNKSt3__16vectorINS_12basic_stringIcNS_11char_traitsIcEENS_9allocatorIcEEEENS4_IS6_EEE14__annotate_newB8ue170006Em, symObjAddr: 0xBE9C, symBinAddr: 0x1000160B8, symSize: 0xC8 }
  - { offsetInCU: 0x1204E, offset: 0x29051, size: 0x8, addend: 0x0, symName: __ZNKSt3__16vectorINS_12basic_stringIcNS_11char_traitsIcEENS_9allocatorIcEEEENS4_IS6_EEE31__annotate_contiguous_containerB8ue170006EPKvSA_SA_SA_, symObjAddr: 0xBF64, symBinAddr: 0x100016180, symSize: 0x20 }
  - { offsetInCU: 0x120A3, offset: 0x290A6, size: 0x8, addend: 0x0, symName: __ZNKSt3__16vectorINS_12basic_stringIcNS_11char_traitsIcEENS_9allocatorIcEEEENS4_IS6_EEE4dataB8ue170006Ev, symObjAddr: 0xBF84, symBinAddr: 0x1000161A0, symSize: 0x28 }
  - { offsetInCU: 0x120C7, offset: 0x290CA, size: 0x8, addend: 0x0, symName: __ZNSt3__129_AllocatorDestroyRangeReverseINS_9allocatorINS_12basic_stringIcNS_11char_traitsIcEENS1_IcEEEEEENS_16reverse_iteratorIPS6_EEEC1B8ue170006ERS7_RSA_SD_, symObjAddr: 0xBFF8, symBinAddr: 0x100016214, symSize: 0x44 }
  - { offsetInCU: 0x1211C, offset: 0x2911F, size: 0x8, addend: 0x0, symName: __ZNKSt3__116reverse_iteratorIPNS_12basic_stringIcNS_11char_traitsIcEENS_9allocatorIcEEEEEdeB8ue170006Ev, symObjAddr: 0xC0A8, symBinAddr: 0x1000162C4, symSize: 0x28 }
  - { offsetInCU: 0x1214F, offset: 0x29152, size: 0x8, addend: 0x0, symName: __ZNSt3__116reverse_iteratorIPNS_12basic_stringIcNS_11char_traitsIcEENS_9allocatorIcEEEEEppB8ue170006Ev, symObjAddr: 0xC0D0, symBinAddr: 0x1000162EC, symSize: 0x20 }
  - { offsetInCU: 0x12174, offset: 0x29177, size: 0x8, addend: 0x0, symName: __ZNSt3__128__exception_guard_exceptionsINS_29_AllocatorDestroyRangeReverseINS_9allocatorINS_12basic_stringIcNS_11char_traitsIcEENS2_IcEEEEEENS_16reverse_iteratorIPS7_EEEEE10__completeB8ue170006Ev, symObjAddr: 0xC0F0, symBinAddr: 0x10001630C, symSize: 0x1C }
  - { offsetInCU: 0x12199, offset: 0x2919C, size: 0x8, addend: 0x0, symName: __ZNSt3__128__exception_guard_exceptionsINS_29_AllocatorDestroyRangeReverseINS_9allocatorINS_12basic_stringIcNS_11char_traitsIcEENS2_IcEEEEEENS_16reverse_iteratorIPS7_EEEEED1B8ue170006Ev, symObjAddr: 0xC10C, symBinAddr: 0x100016328, symSize: 0x2C }
  - { offsetInCU: 0x121C1, offset: 0x291C4, size: 0x8, addend: 0x0, symName: __ZNSt3__128__exception_guard_exceptionsINS_29_AllocatorDestroyRangeReverseINS_9allocatorINS_12basic_stringIcNS_11char_traitsIcEENS2_IcEEEEEENS_16reverse_iteratorIPS7_EEEEEC1B8ue170006ESC_, symObjAddr: 0xC138, symBinAddr: 0x100016354, symSize: 0x34 }
  - { offsetInCU: 0x121F8, offset: 0x291FB, size: 0x8, addend: 0x0, symName: __ZNSt3__128__exception_guard_exceptionsINS_29_AllocatorDestroyRangeReverseINS_9allocatorINS_12basic_stringIcNS_11char_traitsIcEENS2_IcEEEEEENS_16reverse_iteratorIPS7_EEEEEC2B8ue170006ESC_, symObjAddr: 0xC16C, symBinAddr: 0x100016388, symSize: 0x30 }
  - { offsetInCU: 0x12230, offset: 0x29233, size: 0x8, addend: 0x0, symName: __ZNSt3__129_AllocatorDestroyRangeReverseINS_9allocatorINS_12basic_stringIcNS_11char_traitsIcEENS1_IcEEEEEENS_16reverse_iteratorIPS6_EEEC2B8ue170006ERS7_RSA_SD_, symObjAddr: 0xC19C, symBinAddr: 0x1000163B8, symSize: 0x38 }
  - { offsetInCU: 0x1228B, offset: 0x2928E, size: 0x8, addend: 0x0, symName: __ZNSt3__119__to_address_helperINS_16reverse_iteratorIPNS_12basic_stringIcNS_11char_traitsIcEENS_9allocatorIcEEEEEEvE6__callB8ue170006ERKS9_, symObjAddr: 0xC1D4, symBinAddr: 0x1000163F0, symSize: 0x38 }
  - { offsetInCU: 0x122AE, offset: 0x292B1, size: 0x8, addend: 0x0, symName: __ZNKSt3__116reverse_iteratorIPNS_12basic_stringIcNS_11char_traitsIcEENS_9allocatorIcEEEEEptB8ue170006Ev, symObjAddr: 0xC20C, symBinAddr: 0x100016428, symSize: 0x24 }
  - { offsetInCU: 0x122D2, offset: 0x292D5, size: 0x8, addend: 0x0, symName: __ZNSt3__128__exception_guard_exceptionsINS_29_AllocatorDestroyRangeReverseINS_9allocatorINS_12basic_stringIcNS_11char_traitsIcEENS2_IcEEEEEENS_16reverse_iteratorIPS7_EEEEED2B8ue170006Ev, symObjAddr: 0xC230, symBinAddr: 0x10001644C, symSize: 0x50 }
  - { offsetInCU: 0x122FA, offset: 0x292FD, size: 0x8, addend: 0x0, symName: __ZNKSt3__129_AllocatorDestroyRangeReverseINS_9allocatorINS_12basic_stringIcNS_11char_traitsIcEENS1_IcEEEEEENS_16reverse_iteratorIPS6_EEEclB8ue170006Ev, symObjAddr: 0xC280, symBinAddr: 0x10001649C, symSize: 0xB4 }
  - { offsetInCU: 0x1231F, offset: 0x29322, size: 0x8, addend: 0x0, symName: __ZNSt3__116reverse_iteratorINS0_IPNS_12basic_stringIcNS_11char_traitsIcEENS_9allocatorIcEEEEEEEC1B8ue170006ES8_, symObjAddr: 0xC3A4, symBinAddr: 0x1000165C0, symSize: 0x3C }
  - { offsetInCU: 0x12355, offset: 0x29358, size: 0x8, addend: 0x0, symName: __ZNSt3__116allocator_traitsINS_9allocatorINS_12basic_stringIcNS_11char_traitsIcEENS1_IcEEEEEEE7destroyB8ue170006IS6_vEEvRS7_PT_, symObjAddr: 0xC440, symBinAddr: 0x10001665C, symSize: 0x2C }
  - { offsetInCU: 0x12392, offset: 0x29395, size: 0x8, addend: 0x0, symName: __ZNSt3__116reverse_iteratorINS0_IPNS_12basic_stringIcNS_11char_traitsIcEENS_9allocatorIcEEEEEEEppB8ue170006Ev, symObjAddr: 0xC490, symBinAddr: 0x1000166AC, symSize: 0x30 }
  - { offsetInCU: 0x123B6, offset: 0x293B9, size: 0x8, addend: 0x0, symName: __ZNKSt3__116reverse_iteratorINS0_IPNS_12basic_stringIcNS_11char_traitsIcEENS_9allocatorIcEEEEEEE4baseB8ue170006Ev, symObjAddr: 0xC4C0, symBinAddr: 0x1000166DC, symSize: 0x24 }
  - { offsetInCU: 0x123DB, offset: 0x293DE, size: 0x8, addend: 0x0, symName: __ZNSt3__19allocatorINS_12basic_stringIcNS_11char_traitsIcEENS0_IcEEEEE7destroyB8ue170006EPS5_, symObjAddr: 0xC4E4, symBinAddr: 0x100016700, symSize: 0x28 }
  - { offsetInCU: 0x12412, offset: 0x29415, size: 0x8, addend: 0x0, symName: __ZNSt3__119__to_address_helperINS_16reverse_iteratorINS1_IPNS_12basic_stringIcNS_11char_traitsIcEENS_9allocatorIcEEEEEEEEvE6__callB8ue170006ERKSA_, symObjAddr: 0xC50C, symBinAddr: 0x100016728, symSize: 0x38 }
  - { offsetInCU: 0x12435, offset: 0x29438, size: 0x8, addend: 0x0, symName: __ZNKSt3__116reverse_iteratorINS0_IPNS_12basic_stringIcNS_11char_traitsIcEENS_9allocatorIcEEEEEEEptB8ue170006Ev, symObjAddr: 0xC544, symBinAddr: 0x100016760, symSize: 0x24 }
  - { offsetInCU: 0x12459, offset: 0x2945C, size: 0x8, addend: 0x0, symName: __ZNKSt3__116reverse_iteratorINS0_IPNS_12basic_stringIcNS_11char_traitsIcEENS_9allocatorIcEEEEEEEdeB8ue170006Ev, symObjAddr: 0xC568, symBinAddr: 0x100016784, symSize: 0x34 }
  - { offsetInCU: 0x1248B, offset: 0x2948E, size: 0x8, addend: 0x0, symName: __ZNSt3__116reverse_iteratorIPNS_12basic_stringIcNS_11char_traitsIcEENS_9allocatorIcEEEEEmmB8ue170006Ev, symObjAddr: 0xC59C, symBinAddr: 0x1000167B8, symSize: 0x20 }
  - { offsetInCU: 0x124B0, offset: 0x294B3, size: 0x8, addend: 0x0, symName: __ZNSt3__116reverse_iteratorINS0_IPNS_12basic_stringIcNS_11char_traitsIcEENS_9allocatorIcEEEEEEEC2B8ue170006ES8_, symObjAddr: 0xC5BC, symBinAddr: 0x1000167D8, symSize: 0x2C }
  - { offsetInCU: 0x124E7, offset: 0x294EA, size: 0x8, addend: 0x0, symName: __ZNSt3__116reverse_iteratorIPNS_12basic_stringIcNS_11char_traitsIcEENS_9allocatorIcEEEEEC2B8ue170006ES7_, symObjAddr: 0xC5E8, symBinAddr: 0x100016804, symSize: 0x28 }
  - { offsetInCU: 0x1251E, offset: 0x29521, size: 0x8, addend: 0x0, symName: __ZNSt3__114__split_bufferINS_12basic_stringIcNS_11char_traitsIcEENS_9allocatorIcEEEERNS4_IS6_EEED2Ev, symObjAddr: 0xC610, symBinAddr: 0x10001682C, symSize: 0x8C }
  - { offsetInCU: 0x12549, offset: 0x2954C, size: 0x8, addend: 0x0, symName: __ZNSt3__114__split_bufferINS_12basic_stringIcNS_11char_traitsIcEENS_9allocatorIcEEEERNS4_IS6_EEE5clearB8ue170006Ev, symObjAddr: 0xC69C, symBinAddr: 0x1000168B8, symSize: 0x28 }
  - { offsetInCU: 0x1256D, offset: 0x29570, size: 0x8, addend: 0x0, symName: __ZNSt3__116allocator_traitsINS_9allocatorINS_12basic_stringIcNS_11char_traitsIcEENS1_IcEEEEEEE10deallocateB8ue170006ERS7_PS6_m, symObjAddr: 0xC6C4, symBinAddr: 0x1000168E0, symSize: 0x34 }
  - { offsetInCU: 0x125AF, offset: 0x295B2, size: 0x8, addend: 0x0, symName: __ZNKSt3__114__split_bufferINS_12basic_stringIcNS_11char_traitsIcEENS_9allocatorIcEEEERNS4_IS6_EEE8capacityB8ue170006Ev, symObjAddr: 0xC6F8, symBinAddr: 0x100016914, symSize: 0x40 }
  - { offsetInCU: 0x125D3, offset: 0x295D6, size: 0x8, addend: 0x0, symName: __ZNSt3__114__split_bufferINS_12basic_stringIcNS_11char_traitsIcEENS_9allocatorIcEEEERNS4_IS6_EEE17__destruct_at_endB8ue170006EPS6_, symObjAddr: 0xC738, symBinAddr: 0x100016954, symSize: 0x2C }
  - { offsetInCU: 0x12605, offset: 0x29608, size: 0x8, addend: 0x0, symName: __ZNSt3__114__split_bufferINS_12basic_stringIcNS_11char_traitsIcEENS_9allocatorIcEEEERNS4_IS6_EEE17__destruct_at_endB8ue170006EPS6_NS_17integral_constantIbLb0EEE, symObjAddr: 0xC764, symBinAddr: 0x100016980, symSize: 0x80 }
  - { offsetInCU: 0x12645, offset: 0x29648, size: 0x8, addend: 0x0, symName: __ZNSt3__19allocatorINS_12basic_stringIcNS_11char_traitsIcEENS0_IcEEEEE10deallocateB8ue170006EPS5_m, symObjAddr: 0xC7E4, symBinAddr: 0x100016A00, symSize: 0x44 }
  - { offsetInCU: 0x12685, offset: 0x29688, size: 0x8, addend: 0x0, symName: __ZNKSt3__114__split_bufferINS_12basic_stringIcNS_11char_traitsIcEENS_9allocatorIcEEEERNS4_IS6_EEE9__end_capB8ue170006Ev, symObjAddr: 0xC828, symBinAddr: 0x100016A44, symSize: 0x28 }
  - { offsetInCU: 0x126A9, offset: 0x296AC, size: 0x8, addend: 0x0, symName: __ZNKSt3__117__compressed_pairIPNS_12basic_stringIcNS_11char_traitsIcEENS_9allocatorIcEEEERNS4_IS6_EEE5firstB8ue170006Ev, symObjAddr: 0xC850, symBinAddr: 0x100016A6C, symSize: 0x24 }
  - { offsetInCU: 0x126F0, offset: 0x296F3, size: 0x8, addend: 0x0, symName: __ZZN19unit_test_framework9TestSuite21get_test_names_to_runEiPPcENKUlRKNSt3__14pairINS3_12basic_stringIcNS3_11char_traitsIcEENS3_9allocatorIcEEEENS_8TestCaseEEEE_clESE_, symObjAddr: 0xC874, symBinAddr: 0x100016A90, symSize: 0x3C }
  - { offsetInCU: 0x12727, offset: 0x2972A, size: 0x8, addend: 0x0, symName: __ZNSt3__14pairINS_12basic_stringIcNS_11char_traitsIcEENS_9allocatorIcEEEEN19unit_test_framework8TestCaseEEC1B8ue170006IKS6_S8_LPv0EEERKNS0_IT_T0_EE, symObjAddr: 0xC8B0, symBinAddr: 0x100016ACC, symSize: 0x34 }
  - { offsetInCU: 0x12776, offset: 0x29779, size: 0x8, addend: 0x0, symName: __ZNSt3__120back_insert_iteratorINS_6vectorINS_12basic_stringIcNS_11char_traitsIcEENS_9allocatorIcEEEENS5_IS7_EEEEEdeB8ue170006Ev, symObjAddr: 0xC8E4, symBinAddr: 0x100016B00, symSize: 0x14 }
  - { offsetInCU: 0x1279B, offset: 0x2979E, size: 0x8, addend: 0x0, symName: __ZNSt3__120back_insert_iteratorINS_6vectorINS_12basic_stringIcNS_11char_traitsIcEENS_9allocatorIcEEEENS5_IS7_EEEEEaSB8ue170006EOS7_, symObjAddr: 0xC8F8, symBinAddr: 0x100016B14, symSize: 0x38 }
  - { offsetInCU: 0x127CD, offset: 0x297D0, size: 0x8, addend: 0x0, symName: __ZNSt3__14pairINS_12basic_stringIcNS_11char_traitsIcEENS_9allocatorIcEEEEN19unit_test_framework8TestCaseEED1Ev, symObjAddr: 0xC930, symBinAddr: 0x100016B4C, symSize: 0x2C }
  - { offsetInCU: 0x127F7, offset: 0x297FA, size: 0x8, addend: 0x0, symName: __ZNSt3__120back_insert_iteratorINS_6vectorINS_12basic_stringIcNS_11char_traitsIcEENS_9allocatorIcEEEENS5_IS7_EEEEEppB8ue170006Ev, symObjAddr: 0xC95C, symBinAddr: 0x100016B78, symSize: 0x14 }
  - { offsetInCU: 0x1281C, offset: 0x2981F, size: 0x8, addend: 0x0, symName: __ZNSt3__14pairINS_12basic_stringIcNS_11char_traitsIcEENS_9allocatorIcEEEEN19unit_test_framework8TestCaseEEC2B8ue170006IKS6_S8_LPv0EEERKNS0_IT_T0_EE, symObjAddr: 0xC970, symBinAddr: 0x100016B8C, symSize: 0x70 }
  - { offsetInCU: 0x12875, offset: 0x29878, size: 0x8, addend: 0x0, symName: __ZN19unit_test_framework8TestCaseC1ERKS0_, symObjAddr: 0xC9E0, symBinAddr: 0x100016BFC, symSize: 0x34 }
  - { offsetInCU: 0x128AA, offset: 0x298AD, size: 0x8, addend: 0x0, symName: __ZN19unit_test_framework8TestCaseC2ERKS0_, symObjAddr: 0xCA14, symBinAddr: 0x100016C30, symSize: 0xB4 }
  - { offsetInCU: 0x128DF, offset: 0x298E2, size: 0x8, addend: 0x0, symName: __ZNSt3__14pairINS_12basic_stringIcNS_11char_traitsIcEENS_9allocatorIcEEEEN19unit_test_framework8TestCaseEED2Ev, symObjAddr: 0xCAC8, symBinAddr: 0x100016CE4, symSize: 0x38 }
  - { offsetInCU: 0x12909, offset: 0x2990C, size: 0x8, addend: 0x0, symName: __ZNSt3__120back_insert_iteratorINS_6vectorINS_12basic_stringIcNS_11char_traitsIcEENS_9allocatorIcEEEENS5_IS7_EEEEEC1B8ue170006ERS9_, symObjAddr: 0xCB00, symBinAddr: 0x100016D1C, symSize: 0x34 }
  - { offsetInCU: 0x1293F, offset: 0x29942, size: 0x8, addend: 0x0, symName: __ZNSt3__120back_insert_iteratorINS_6vectorINS_12basic_stringIcNS_11char_traitsIcEENS_9allocatorIcEEEENS5_IS7_EEEEEC2B8ue170006ERS9_, symObjAddr: 0xCB34, symBinAddr: 0x100016D50, symSize: 0x20 }
  - { offsetInCU: 0x12976, offset: 0x29979, size: 0x8, addend: 0x0, symName: __ZNSt3__16vectorINS_12basic_stringIcNS_11char_traitsIcEENS_9allocatorIcEEEENS4_IS6_EEE13__move_assignERS8_NS_17integral_constantIbLb1EEE, symObjAddr: 0xCB54, symBinAddr: 0x100016D70, symSize: 0x94 }
  - { offsetInCU: 0x129B8, offset: 0x299BB, size: 0x8, addend: 0x0, symName: __ZNSt3__16vectorINS_12basic_stringIcNS_11char_traitsIcEENS_9allocatorIcEEEENS4_IS6_EEE13__vdeallocateEv, symObjAddr: 0xCBE8, symBinAddr: 0x100016E04, symSize: 0x94 }
  - { offsetInCU: 0x129DF, offset: 0x299E2, size: 0x8, addend: 0x0, symName: __ZNSt3__16vectorINS_12basic_stringIcNS_11char_traitsIcEENS_9allocatorIcEEEENS4_IS6_EEE19__move_assign_allocB8ue170006ERS8_, symObjAddr: 0xCC7C, symBinAddr: 0x100016E98, symSize: 0x2C }
  - { offsetInCU: 0x12A12, offset: 0x29A15, size: 0x8, addend: 0x0, symName: __ZNSt3__16vectorINS_12basic_stringIcNS_11char_traitsIcEENS_9allocatorIcEEEENS4_IS6_EEE5clearB8ue170006Ev, symObjAddr: 0xCCA8, symBinAddr: 0x100016EC4, symSize: 0x44 }
  - { offsetInCU: 0x12A45, offset: 0x29A48, size: 0x8, addend: 0x0, symName: __ZNSt3__16vectorINS_12basic_stringIcNS_11char_traitsIcEENS_9allocatorIcEEEENS4_IS6_EEE7__clearB8ue170006Ev, symObjAddr: 0xCCEC, symBinAddr: 0x100016F08, symSize: 0x28 }
  - { offsetInCU: 0x12A69, offset: 0x29A6C, size: 0x8, addend: 0x0, symName: __ZNKSt3__16vectorINS_12basic_stringIcNS_11char_traitsIcEENS_9allocatorIcEEEENS4_IS6_EEE17__annotate_shrinkB8ue170006Em, symObjAddr: 0xCD14, symBinAddr: 0x100016F30, symSize: 0xD0 }
  - { offsetInCU: 0x12A9C, offset: 0x29A9F, size: 0x8, addend: 0x0, symName: __ZNSt3__16vectorINS_12basic_stringIcNS_11char_traitsIcEENS_9allocatorIcEEEENS4_IS6_EEE22__base_destruct_at_endB8ue170006EPS6_, symObjAddr: 0xCDE4, symBinAddr: 0x100017000, symSize: 0x8C }
  - { offsetInCU: 0x12ADE, offset: 0x29AE1, size: 0x8, addend: 0x0, symName: __ZNSt3__16vectorINS_12basic_stringIcNS_11char_traitsIcEENS_9allocatorIcEEEENS4_IS6_EEE19__move_assign_allocB8ue170006ERS8_NS_17integral_constantIbLb1EEE, symObjAddr: 0xCE70, symBinAddr: 0x10001708C, symSize: 0x38 }
  - { offsetInCU: 0x12B1D, offset: 0x29B20, size: 0x8, addend: 0x0, symName: __ZNSt3__16vectorINS_12basic_stringIcNS_11char_traitsIcEENS_9allocatorIcEEEENS4_IS6_EEED2B8ue170006Ev, symObjAddr: 0xCEA8, symBinAddr: 0x1000170C4, symSize: 0x44 }
  - { offsetInCU: 0x12B45, offset: 0x29B48, size: 0x8, addend: 0x0, symName: __ZNSt3__16vectorINS_12basic_stringIcNS_11char_traitsIcEENS_9allocatorIcEEEENS4_IS6_EEE16__destroy_vectorC1B8ue170006ERS8_, symObjAddr: 0xCEEC, symBinAddr: 0x100017108, symSize: 0x34 }
  - { offsetInCU: 0x12B7C, offset: 0x29B7F, size: 0x8, addend: 0x0, symName: __ZNSt3__16vectorINS_12basic_stringIcNS_11char_traitsIcEENS_9allocatorIcEEEENS4_IS6_EEE16__destroy_vectorclB8ue170006Ev, symObjAddr: 0xCF20, symBinAddr: 0x10001713C, symSize: 0x90 }
  - { offsetInCU: 0x12BA0, offset: 0x29BA3, size: 0x8, addend: 0x0, symName: __ZNSt3__16vectorINS_12basic_stringIcNS_11char_traitsIcEENS_9allocatorIcEEEENS4_IS6_EEE16__destroy_vectorC2B8ue170006ERS8_, symObjAddr: 0xCFB0, symBinAddr: 0x1000171CC, symSize: 0x20 }
  - { offsetInCU: 0x12BD8, offset: 0x29BDB, size: 0x8, addend: 0x0, symName: __ZNSt3__16vectorINS_12basic_stringIcNS_11char_traitsIcEENS_9allocatorIcEEEENS4_IS6_EEE11__make_iterB8ue170006EPS6_, symObjAddr: 0xCFD0, symBinAddr: 0x1000171EC, symSize: 0x30 }
  - { offsetInCU: 0x12C0B, offset: 0x29C0E, size: 0x8, addend: 0x0, symName: __ZNSt3__111__wrap_iterIPNS_12basic_stringIcNS_11char_traitsIcEENS_9allocatorIcEEEEEC1B8ue170006ES7_, symObjAddr: 0xD000, symBinAddr: 0x10001721C, symSize: 0x34 }
  - { offsetInCU: 0x12C41, offset: 0x29C44, size: 0x8, addend: 0x0, symName: __ZNSt3__111__wrap_iterIPNS_12basic_stringIcNS_11char_traitsIcEENS_9allocatorIcEEEEEC2B8ue170006ES7_, symObjAddr: 0xD034, symBinAddr: 0x100017250, symSize: 0x20 }
  - { offsetInCU: 0x12C78, offset: 0x29C7B, size: 0x8, addend: 0x0, symName: __ZNKSt3__111__wrap_iterIPNS_12basic_stringIcNS_11char_traitsIcEENS_9allocatorIcEEEEE4baseB8ue170006Ev, symObjAddr: 0xD09C, symBinAddr: 0x1000172B8, symSize: 0x18 }
  - { offsetInCU: 0x12C9D, offset: 0x29CA0, size: 0x8, addend: 0x0, symName: __ZNSt3__16__treeINS_12__value_typeINS_12basic_stringIcNS_11char_traitsIcEENS_9allocatorIcEEEEN19unit_test_framework8TestCaseEEENS_19__map_value_compareIS7_SA_NS_4lessIS7_EELb1EEENS5_ISA_EEE4findIS7_EENS_15__tree_iteratorISA_PNS_11__tree_nodeISA_PvEElEERKT_, symObjAddr: 0xD0B4, symBinAddr: 0x1000172D0, symSize: 0xF8 }
  - { offsetInCU: 0x12CEB, offset: 0x29CEE, size: 0x8, addend: 0x0, symName: __ZNSt3__16__treeINS_12__value_typeINS_12basic_stringIcNS_11char_traitsIcEENS_9allocatorIcEEEEN19unit_test_framework8TestCaseEEENS_19__map_value_compareIS7_SA_NS_4lessIS7_EELb1EEENS5_ISA_EEE13__lower_boundIS7_EENS_15__tree_iteratorISA_PNS_11__tree_nodeISA_PvEElEERKT_SM_PNS_15__tree_end_nodeIPNS_16__tree_node_baseISK_EEEE, symObjAddr: 0xD1AC, symBinAddr: 0x1000173C8, symSize: 0xA4 }
  - { offsetInCU: 0x12D48, offset: 0x29D4B, size: 0x8, addend: 0x0, symName: __ZNSt3__16__treeINS_12__value_typeINS_12basic_stringIcNS_11char_traitsIcEENS_9allocatorIcEEEEN19unit_test_framework8TestCaseEEENS_19__map_value_compareIS7_SA_NS_4lessIS7_EELb1EEENS5_ISA_EEE3endB8ue170006Ev, symObjAddr: 0xD250, symBinAddr: 0x10001746C, symSize: 0x34 }
  - { offsetInCU: 0x12D6C, offset: 0x29D6F, size: 0x8, addend: 0x0, symName: __ZNKSt3__115__tree_iteratorINS_12__value_typeINS_12basic_stringIcNS_11char_traitsIcEENS_9allocatorIcEEEEN19unit_test_framework8TestCaseEEEPNS_11__tree_nodeISA_PvEElEdeB8ue170006Ev, symObjAddr: 0xD284, symBinAddr: 0x1000174A0, symSize: 0x28 }
  - { offsetInCU: 0x12D90, offset: 0x29D93, size: 0x8, addend: 0x0, symName: __ZNSt3__115__tree_iteratorINS_12__value_typeINS_12basic_stringIcNS_11char_traitsIcEENS_9allocatorIcEEEEN19unit_test_framework8TestCaseEEEPNS_11__tree_nodeISA_PvEElEC1B8ue170006EPNS_15__tree_end_nodeIPNS_16__tree_node_baseISC_EEEE, symObjAddr: 0xD2AC, symBinAddr: 0x1000174C8, symSize: 0x34 }
  - { offsetInCU: 0x12DC7, offset: 0x29DCA, size: 0x8, addend: 0x0, symName: __ZNSt3__115__tree_iteratorINS_12__value_typeINS_12basic_stringIcNS_11char_traitsIcEENS_9allocatorIcEEEEN19unit_test_framework8TestCaseEEEPNS_11__tree_nodeISA_PvEElEC2B8ue170006EPNS_15__tree_end_nodeIPNS_16__tree_node_baseISC_EEEE, symObjAddr: 0xD2E0, symBinAddr: 0x1000174FC, symSize: 0x20 }
  - { offsetInCU: 0x12DFF, offset: 0x29E02, size: 0x8, addend: 0x0, symName: __ZNSt12out_of_rangeC1B8ue170006EPKc, symObjAddr: 0xD364, symBinAddr: 0x100017580, symSize: 0x34 }
  - { offsetInCU: 0x12E35, offset: 0x29E38, size: 0x8, addend: 0x0, symName: __ZNSt12out_of_rangeC2B8ue170006EPKc, symObjAddr: 0xD398, symBinAddr: 0x1000175B4, symSize: 0x4C }
  - { offsetInCU: 0x12E6B, offset: 0x29E6E, size: 0x8, addend: 0x0, symName: __ZN19unit_test_framework10Diagnostic8demangleEPKc, symObjAddr: 0xD3E4, symBinAddr: 0x100017600, symSize: 0xDC }
  - { offsetInCU: 0x12EEC, offset: 0x29EEF, size: 0x8, addend: 0x0, symName: __ZNKSt9type_info4nameB8ue170006Ev, symObjAddr: 0xD4C0, symBinAddr: 0x1000176DC, symSize: 0x24 }
  - { offsetInCU: 0x12F31, offset: 0x29F34, size: 0x8, addend: 0x0, symName: __ZNSt3__112basic_stringIcNS_11char_traitsIcEENS_9allocatorIcEEEaSB8ue170006EOS5_, symObjAddr: 0xD4E4, symBinAddr: 0x100017700, symSize: 0x34 }
  - { offsetInCU: 0x12F64, offset: 0x29F67, size: 0x8, addend: 0x0, symName: __ZNK19unit_test_framework11TestFailure9to_stringEv, symObjAddr: 0xD518, symBinAddr: 0x100017734, symSize: 0x98 }
  - { offsetInCU: 0x12F96, offset: 0x29F99, size: 0x8, addend: 0x0, symName: __ZNSt3__112basic_stringIcNS_11char_traitsIcEENS_9allocatorIcEEE13__move_assignB8ue170006ERS5_NS_17integral_constantIbLb1EEE, symObjAddr: 0xD5B0, symBinAddr: 0x1000177CC, symSize: 0xC8 }
  - { offsetInCU: 0x12FD8, offset: 0x29FDB, size: 0x8, addend: 0x0, symName: __ZNSt3__116allocator_traitsINS_9allocatorIcEEE10deallocateB8ue170006ERS2_Pcm, symObjAddr: 0xD678, symBinAddr: 0x100017894, symSize: 0x34 }
  - { offsetInCU: 0x1301A, offset: 0x2A01D, size: 0x8, addend: 0x0, symName: __ZNSt3__112basic_stringIcNS_11char_traitsIcEENS_9allocatorIcEEE7__allocB8ue170006Ev, symObjAddr: 0xD6AC, symBinAddr: 0x1000178C8, symSize: 0x24 }
  - { offsetInCU: 0x1303E, offset: 0x2A041, size: 0x8, addend: 0x0, symName: __ZNKSt3__112basic_stringIcNS_11char_traitsIcEENS_9allocatorIcEEE14__get_long_capB8ue170006Ev, symObjAddr: 0xD6D0, symBinAddr: 0x1000178EC, symSize: 0x30 }
  - { offsetInCU: 0x13062, offset: 0x2A065, size: 0x8, addend: 0x0, symName: __ZNSt3__112basic_stringIcNS_11char_traitsIcEENS_9allocatorIcEEE19__move_assign_allocB8ue170006ERS5_, symObjAddr: 0xD700, symBinAddr: 0x10001791C, symSize: 0x2C }
  - { offsetInCU: 0x13095, offset: 0x2A098, size: 0x8, addend: 0x0, symName: __ZNSt3__19allocatorIcE10deallocateB8ue170006EPcm, symObjAddr: 0xD7C8, symBinAddr: 0x100017948, symSize: 0x40 }
  - { offsetInCU: 0x130D5, offset: 0x2A0D8, size: 0x8, addend: 0x0, symName: __ZNSt3__117__compressed_pairINS_12basic_stringIcNS_11char_traitsIcEENS_9allocatorIcEEE5__repES5_E6secondB8ue170006Ev, symObjAddr: 0xD808, symBinAddr: 0x100017988, symSize: 0x24 }
  - { offsetInCU: 0x130F9, offset: 0x2A0FC, size: 0x8, addend: 0x0, symName: __ZNSt3__122__compressed_pair_elemINS_9allocatorIcEELi1ELb1EE5__getB8ue170006Ev, symObjAddr: 0xD82C, symBinAddr: 0x1000179AC, symSize: 0x14 }
  - { offsetInCU: 0x1311E, offset: 0x2A121, size: 0x8, addend: 0x0, symName: __ZNSt3__112basic_stringIcNS_11char_traitsIcEENS_9allocatorIcEEE19__move_assign_allocB8ue170006ERS5_NS_17integral_constantIbLb1EEE, symObjAddr: 0xD840, symBinAddr: 0x1000179C0, symSize: 0x38 }
  - { offsetInCU: 0x1315D, offset: 0x2A160, size: 0x8, addend: 0x0, symName: __ZNK19unit_test_framework11TestFailure5printERNSt3__113basic_ostreamIcNS1_11char_traitsIcEEEE, symObjAddr: 0xD878, symBinAddr: 0x1000179F8, symSize: 0x7C }
  - { offsetInCU: 0x1318F, offset: 0x2A192, size: 0x8, addend: 0x0, symName: __ZNKSt3__112basic_stringIcNS_11char_traitsIcEENS_9allocatorIcEEE5emptyB8ue170006Ev, symObjAddr: 0xD8F4, symBinAddr: 0x100017A74, symSize: 0x30 }
  - { offsetInCU: 0x131BD, offset: 0x2A1C0, size: 0x8, addend: 0x0, symName: __ZZN19unit_test_framework9TestSuite9run_testsEiPPcENKUlNSt3__14pairINS3_12basic_stringIcNS3_11char_traitsIcEENS3_9allocatorIcEEEENS_8TestCaseEEEE_clESC_, symObjAddr: 0xD924, symBinAddr: 0x100017AA4, symSize: 0x30 }
  - { offsetInCU: 0x131F5, offset: 0x2A1F8, size: 0x8, addend: 0x0, symName: __ZNSt3__16__treeINS_12__value_typeINS_12basic_stringIcNS_11char_traitsIcEENS_9allocatorIcEEEEN19unit_test_framework8TestCaseEEENS_19__map_value_compareIS7_SA_NS_4lessIS7_EELb1EEENS5_ISA_EEE5beginB8ue170006Ev, symObjAddr: 0xD954, symBinAddr: 0x100017AD4, symSize: 0x34 }
  - { offsetInCU: 0x13223, offset: 0x2A226, size: 0x8, addend: 0x0, symName: __ZZN19unit_test_framework9TestSuite9run_testsEiPPcENKUlNSt3__14pairINS3_12basic_stringIcNS3_11char_traitsIcEENS3_9allocatorIcEEEENS_8TestCaseEEEE0_clESC_, symObjAddr: 0xD988, symBinAddr: 0x100017B08, symSize: 0x30 }
  - { offsetInCU: 0x1325B, offset: 0x2A25E, size: 0x8, addend: 0x0, symName: __ZN19unit_test_framework11SetCompleteD2Ev, symObjAddr: 0xD9B8, symBinAddr: 0x100017B38, symSize: 0x1C }
  - { offsetInCU: 0x13284, offset: 0x2A287, size: 0x8, addend: 0x0, symName: __ZN19unit_test_framework18TestSuiteDestroyerD2Ev, symObjAddr: 0xD9D4, symBinAddr: 0x100017B54, symSize: 0x58 }
  - { offsetInCU: 0x132AC, offset: 0x2A2AF, size: 0x8, addend: 0x0, symName: __ZN19unit_test_framework9TestSuiteD1Ev, symObjAddr: 0xDA2C, symBinAddr: 0x100017BAC, symSize: 0x2C }
  - { offsetInCU: 0x132D4, offset: 0x2A2D7, size: 0x8, addend: 0x0, symName: __ZN19unit_test_framework9TestSuiteD2Ev, symObjAddr: 0xDA58, symBinAddr: 0x100017BD8, symSize: 0x2C }
  - { offsetInCU: 0x132FC, offset: 0x2A2FF, size: 0x8, addend: 0x0, symName: __ZNSt3__112basic_stringIcNS_11char_traitsIcEENS_9allocatorIcEEEC2B8ue170006ILi0EEEPKc, symObjAddr: 0xDA84, symBinAddr: 0x100017C04, symSize: 0x58 }
...
